; Listing generated by Microsoft (R) Optimizing Compiler Version 19.22.27905.0 

include listing.inc

INCLUDELIB OLDNAMES

PUBLIC	__real@38d1b717
PUBLIC	__real@38d1c000
PUBLIC	__real@3a83126f
PUBLIC	__real@3ba3d70b
PUBLIC	__real@3ba7c5ad
PUBLIC	__real@3c23d70a
PUBLIC	__real@3ca72f05
PUBLIC	__real@3d4ccccd
PUBLIC	__real@3d719799812dea11
PUBLIC	__real@3dcccccd
PUBLIC	__real@3de38e39
PUBLIC	__real@3e112e0be826d695
PUBLIC	__real@3e4ccccd
PUBLIC	__real@3e83126f
PUBLIC	__real@3f000000
PUBLIC	__real@3f03126f
PUBLIC	__real@3f1a36e2eb1c432d
PUBLIC	__real@3f22599ed7c6fbd2
PUBLIC	__real@3f733333
PUBLIC	__real@3f800000
PUBLIC	__real@3f847ae147ae147b
PUBLIC	__real@3fb999999999999a
PUBLIC	__real@40233333
PUBLIC	__real@4059000000000000
PUBLIC	__real@4072c00000000000
PUBLIC	__real@40800000
PUBLIC	__real@40a00000
PUBLIC	__real@40c00000
PUBLIC	__real@41000000
PUBLIC	__real@41200000
PUBLIC	__real@41a00000
PUBLIC	__real@41c00000
PUBLIC	__real@41cdcd64ffffffff
PUBLIC	__real@42480000
PUBLIC	__real@426d1a94a2000000
PUBLIC	__real@42700000
PUBLIC	__real@42c80000
PUBLIC	__real@42f00000
PUBLIC	__real@43000000
PUBLIC	__real@43480000
PUBLIC	__real@437eb852
PUBLIC	__real@437ef9db
PUBLIC	__real@437f0000
PUBLIC	__real@437f3b64
PUBLIC	__real@437f7cee
PUBLIC	__real@437fbe77
PUBLIC	__real@43800000
PUBLIC	__real@438020c5
PUBLIC	__real@43804189
PUBLIC	__real@43c80000
PUBLIC	__real@43fa0000
PUBLIC	__real@447a0000
PUBLIC	__real@44fa0000
PUBLIC	__real@47435000
PUBLIC	__real@48f42400
PUBLIC	__real@4f800000
PUBLIC	__real@bf000000
PUBLIC	__real@c0000000
PUBLIC	__real@c0400000
PUBLIC	__real@c47a0000
PUBLIC	__xmm@000000000000000f0000000000000000
PUBLIC	__xmm@424800003d4ccccd40a000003f800000
PUBLIC	__xmm@7fffffff7fffffff7fffffff7fffffff
PUBLIC	__xmm@80000000800000008000000080000000
EXTRN	_CxxThrowException:PROC
EXTRN	__GSHandlerCheck:PROC
EXTRN	__GSHandlerCheck_EH:PROC
EXTRN	_vcomp_for_static_end:PROC
EXTRN	_vcomp_for_static_simple_init:PROC
EXTRN	_vcomp_fork:PROC
EXTRN	memcpy:PROC
EXTRN	memmove:PROC
EXTRN	memset:PROC
EXTRN	powf:PROC
EXTRN	_You_must_link_with_Microsoft_OpenMP_library:DWORD
EXTRN	__security_cookie:QWORD
EXTRN	_fltused:DWORD
;	COMDAT __xmm@80000000800000008000000080000000
CONST	SEGMENT
__xmm@80000000800000008000000080000000 DB 00H, 00H, 00H, 080H, 00H, 00H, 00H
	DB	080H, 00H, 00H, 00H, 080H, 00H, 00H, 00H, 080H
CONST	ENDS
;	COMDAT __xmm@7fffffff7fffffff7fffffff7fffffff
CONST	SEGMENT
__xmm@7fffffff7fffffff7fffffff7fffffff DB 0ffH, 0ffH, 0ffH, 07fH, 0ffH, 0ffH
	DB	0ffH, 07fH, 0ffH, 0ffH, 0ffH, 07fH, 0ffH, 0ffH, 0ffH, 07fH
CONST	ENDS
;	COMDAT __xmm@424800003d4ccccd40a000003f800000
CONST	SEGMENT
__xmm@424800003d4ccccd40a000003f800000 DB 00H, 00H, 080H, '?', 00H, 00H, 0a0H
	DB	'@', 0cdH, 0ccH, 'L=', 00H, 00H, 'HB'
CONST	ENDS
;	COMDAT __xmm@000000000000000f0000000000000000
CONST	SEGMENT
__xmm@000000000000000f0000000000000000 DB 00H, 00H, 00H, 00H, 00H, 00H, 00H
	DB	00H, 0fH, 00H, 00H, 00H, 00H, 00H, 00H, 00H
CONST	ENDS
;	COMDAT __real@c47a0000
CONST	SEGMENT
__real@c47a0000 DD 0c47a0000r			; -1000
CONST	ENDS
;	COMDAT __real@c0400000
CONST	SEGMENT
__real@c0400000 DD 0c0400000r			; -3
CONST	ENDS
;	COMDAT __real@c0000000
CONST	SEGMENT
__real@c0000000 DD 0c0000000r			; -2
CONST	ENDS
;	COMDAT __real@bf000000
CONST	SEGMENT
__real@bf000000 DD 0bf000000r			; -0.5
CONST	ENDS
;	COMDAT __real@4f800000
CONST	SEGMENT
__real@4f800000 DD 04f800000r			; 4.29497e+09
CONST	ENDS
;	COMDAT __real@48f42400
CONST	SEGMENT
__real@48f42400 DD 048f42400r			; 500000
CONST	ENDS
;	COMDAT __real@47435000
CONST	SEGMENT
__real@47435000 DD 047435000r			; 50000
CONST	ENDS
;	COMDAT __real@44fa0000
CONST	SEGMENT
__real@44fa0000 DD 044fa0000r			; 2000
CONST	ENDS
;	COMDAT __real@447a0000
CONST	SEGMENT
__real@447a0000 DD 0447a0000r			; 1000
CONST	ENDS
;	COMDAT __real@43fa0000
CONST	SEGMENT
__real@43fa0000 DD 043fa0000r			; 500
CONST	ENDS
;	COMDAT __real@43c80000
CONST	SEGMENT
__real@43c80000 DD 043c80000r			; 400
CONST	ENDS
;	COMDAT __real@43804189
CONST	SEGMENT
__real@43804189 DD 043804189r			; 256.512
CONST	ENDS
;	COMDAT __real@438020c5
CONST	SEGMENT
__real@438020c5 DD 0438020c5r			; 256.256
CONST	ENDS
;	COMDAT __real@43800000
CONST	SEGMENT
__real@43800000 DD 043800000r			; 256
CONST	ENDS
;	COMDAT __real@437fbe77
CONST	SEGMENT
__real@437fbe77 DD 0437fbe77r			; 255.744
CONST	ENDS
;	COMDAT __real@437f7cee
CONST	SEGMENT
__real@437f7cee DD 0437f7ceer			; 255.488
CONST	ENDS
;	COMDAT __real@437f3b64
CONST	SEGMENT
__real@437f3b64 DD 0437f3b64r			; 255.232
CONST	ENDS
;	COMDAT __real@437f0000
CONST	SEGMENT
__real@437f0000 DD 0437f0000r			; 255
CONST	ENDS
;	COMDAT __real@437ef9db
CONST	SEGMENT
__real@437ef9db DD 0437ef9dbr			; 254.976
CONST	ENDS
;	COMDAT __real@437eb852
CONST	SEGMENT
__real@437eb852 DD 0437eb852r			; 254.72
CONST	ENDS
;	COMDAT __real@43480000
CONST	SEGMENT
__real@43480000 DD 043480000r			; 200
CONST	ENDS
;	COMDAT __real@43000000
CONST	SEGMENT
__real@43000000 DD 043000000r			; 128
CONST	ENDS
;	COMDAT __real@42f00000
CONST	SEGMENT
__real@42f00000 DD 042f00000r			; 120
CONST	ENDS
;	COMDAT __real@42c80000
CONST	SEGMENT
__real@42c80000 DD 042c80000r			; 100
CONST	ENDS
;	COMDAT __real@42700000
CONST	SEGMENT
__real@42700000 DD 042700000r			; 60
CONST	ENDS
;	COMDAT __real@426d1a94a2000000
CONST	SEGMENT
__real@426d1a94a2000000 DQ 0426d1a94a2000000r	; 1e+12
CONST	ENDS
;	COMDAT __real@42480000
CONST	SEGMENT
__real@42480000 DD 042480000r			; 50
CONST	ENDS
;	COMDAT __real@41cdcd64ffffffff
CONST	SEGMENT
__real@41cdcd64ffffffff DQ 041cdcd64ffffffffr	; 1e+09
CONST	ENDS
;	COMDAT __real@41c00000
CONST	SEGMENT
__real@41c00000 DD 041c00000r			; 24
CONST	ENDS
;	COMDAT __real@41a00000
CONST	SEGMENT
__real@41a00000 DD 041a00000r			; 20
CONST	ENDS
;	COMDAT __real@41200000
CONST	SEGMENT
__real@41200000 DD 041200000r			; 10
CONST	ENDS
;	COMDAT __real@41000000
CONST	SEGMENT
__real@41000000 DD 041000000r			; 8
CONST	ENDS
;	COMDAT __real@40c00000
CONST	SEGMENT
__real@40c00000 DD 040c00000r			; 6
CONST	ENDS
;	COMDAT __real@40a00000
CONST	SEGMENT
__real@40a00000 DD 040a00000r			; 5
CONST	ENDS
;	COMDAT __real@40800000
CONST	SEGMENT
__real@40800000 DD 040800000r			; 4
CONST	ENDS
;	COMDAT __real@4072c00000000000
CONST	SEGMENT
__real@4072c00000000000 DQ 04072c00000000000r	; 300
CONST	ENDS
;	COMDAT __real@4059000000000000
CONST	SEGMENT
__real@4059000000000000 DQ 04059000000000000r	; 100
CONST	ENDS
;	COMDAT __real@40233333
CONST	SEGMENT
__real@40233333 DD 040233333r			; 2.55
CONST	ENDS
;	COMDAT __real@3fb999999999999a
CONST	SEGMENT
__real@3fb999999999999a DQ 03fb999999999999ar	; 0.1
CONST	ENDS
;	COMDAT __real@3f847ae147ae147b
CONST	SEGMENT
__real@3f847ae147ae147b DQ 03f847ae147ae147br	; 0.01
CONST	ENDS
;	COMDAT __real@3f800000
CONST	SEGMENT
__real@3f800000 DD 03f800000r			; 1
CONST	ENDS
;	COMDAT __real@3f733333
CONST	SEGMENT
__real@3f733333 DD 03f733333r			; 0.95
CONST	ENDS
;	COMDAT __real@3f22599ed7c6fbd2
CONST	SEGMENT
__real@3f22599ed7c6fbd2 DQ 03f22599ed7c6fbd2r	; 0.00014
CONST	ENDS
;	COMDAT __real@3f1a36e2eb1c432d
CONST	SEGMENT
__real@3f1a36e2eb1c432d DQ 03f1a36e2eb1c432dr	; 0.0001
CONST	ENDS
;	COMDAT __real@3f03126f
CONST	SEGMENT
__real@3f03126f DD 03f03126fr			; 0.512
CONST	ENDS
;	COMDAT __real@3f000000
CONST	SEGMENT
__real@3f000000 DD 03f000000r			; 0.5
CONST	ENDS
;	COMDAT __real@3e83126f
CONST	SEGMENT
__real@3e83126f DD 03e83126fr			; 0.256
CONST	ENDS
;	COMDAT __real@3e4ccccd
CONST	SEGMENT
__real@3e4ccccd DD 03e4ccccdr			; 0.2
CONST	ENDS
;	COMDAT __real@3e112e0be826d695
CONST	SEGMENT
__real@3e112e0be826d695 DQ 03e112e0be826d695r	; 1e-09
CONST	ENDS
;	COMDAT __real@3de38e39
CONST	SEGMENT
__real@3de38e39 DD 03de38e39r			; 0.111111
CONST	ENDS
;	COMDAT __real@3dcccccd
CONST	SEGMENT
__real@3dcccccd DD 03dcccccdr			; 0.1
CONST	ENDS
;	COMDAT __real@3d719799812dea11
CONST	SEGMENT
__real@3d719799812dea11 DQ 03d719799812dea11r	; 1e-12
CONST	ENDS
;	COMDAT __real@3d4ccccd
CONST	SEGMENT
__real@3d4ccccd DD 03d4ccccdr			; 0.05
CONST	ENDS
;	COMDAT __real@3ca72f05
CONST	SEGMENT
__real@3ca72f05 DD 03ca72f05r			; 0.0204082
CONST	ENDS
;	COMDAT __real@3c23d70a
CONST	SEGMENT
__real@3c23d70a DD 03c23d70ar			; 0.01
CONST	ENDS
;	COMDAT __real@3ba7c5ad
CONST	SEGMENT
__real@3ba7c5ad DD 03ba7c5adr			; 0.00512
CONST	ENDS
;	COMDAT __real@3ba3d70b
CONST	SEGMENT
__real@3ba3d70b DD 03ba3d70br			; 0.005
CONST	ENDS
;	COMDAT __real@3a83126f
CONST	SEGMENT
__real@3a83126f DD 03a83126fr			; 0.001
CONST	ENDS
;	COMDAT __real@38d1c000
CONST	SEGMENT
__real@38d1c000 DD 038d1c000r			; 0.000100017
CONST	ENDS
;	COMDAT __real@38d1b717
CONST	SEGMENT
__real@38d1b717 DD 038d1b717r			; 0.0001
CONST	ENDS
END
