; Listing generated by Microsoft (R) Optimizing Compiler Version 19.22.27905.0 

include listing.inc

INCLUDELIB OLDNAMES

PUBLIC	??$max@M@glm@@YAMMM@Z				; glm::max<float>
PUBLIC	??$min@M@glm@@YAMMM@Z				; glm::min<float>
PUBLIC	?call@?$functor2@Uvec@glm@@$01M$0A@@detail@glm@@SA?AU?$vec@$01M$0A@@3@P6AMMM@ZAEBU43@1@Z ; glm::detail::functor2<glm::vec,2,float,0>::call
PUBLIC	?call@?$compute_max_vector@$01M$0A@$0A@@detail@glm@@SA?AU?$vec@$01M$0A@@3@AEBU43@0@Z ; glm::detail::compute_max_vector<2,float,0,0>::call
PUBLIC	?call@?$compute_min_vector@$01M$0A@$0A@@detail@glm@@SA?AU?$vec@$01M$0A@@3@AEBU43@0@Z ; glm::detail::compute_min_vector<2,float,0,0>::call
PUBLIC	??$min@$01M$0A@@glm@@YA?AU?$vec@$01M$0A@@0@AEBU10@0@Z ; glm::min<2,float,0>
PUBLIC	??$max@$01M$0A@@glm@@YA?AU?$vec@$01M$0A@@0@AEBU10@0@Z ; glm::max<2,float,0>
PUBLIC	??$?DM$0A@@glm@@YA?AU?$vec@$01M$0A@@0@AEBU10@0@Z ; glm::operator*<float,0>
PUBLIC	??$inversesqrt@M@glm@@YAMM@Z			; glm::inversesqrt<float>
PUBLIC	?call@?$compute_clamp_vector@$01M$0A@$0A@@detail@glm@@SA?AU?$vec@$01M$0A@@3@AEBU43@00@Z ; glm::detail::compute_clamp_vector<2,float,0,0>::call
PUBLIC	?call@?$compute_dot@U?$vec@$01M$0A@@glm@@M$0A@@detail@glm@@SAMAEBU?$vec@$01M$0A@@3@0@Z ; glm::detail::compute_dot<glm::vec<2,float,0>,float,0>::call
PUBLIC	?call@?$compute_normalize@$01M$0A@$0A@@detail@glm@@SA?AU?$vec@$01M$0A@@3@AEBU43@@Z ; glm::detail::compute_normalize<2,float,0,0>::call
PUBLIC	?call@?$compute_length@$01M$0A@$0A@@detail@glm@@SAMAEBU?$vec@$01M$0A@@3@@Z ; glm::detail::compute_length<2,float,0,0>::call
PUBLIC	??$clamp@$01M$0A@@glm@@YA?AU?$vec@$01M$0A@@0@AEBU10@00@Z ; glm::clamp<2,float,0>
PUBLIC	??$length@$01M$0A@@glm@@YAMAEBU?$vec@$01M$0A@@0@@Z ; glm::length<2,float,0>
PUBLIC	??$normalize@$01M$0A@@glm@@YA?AU?$vec@$01M$0A@@0@AEBU10@@Z ; glm::normalize<2,float,0>
PUBLIC	??$dot@$01M$0A@@glm@@YAMAEBU?$vec@$01M$0A@@0@0@Z ; glm::dot<2,float,0>
PUBLIC	?CheckBounds@Entity@@QEAAXAEAVWorld@@@Z		; Entity::CheckBounds
PUBLIC	?Intergrate@Entity@@QEAAXAEAVWorld@@@Z		; Entity::Intergrate
PUBLIC	?Update@Entity@@QEAAXAEAVWorld@@@Z		; Entity::Update
PUBLIC	?sqrt@@YAMM@Z					; sqrt
;	COMDAT pdata
pdata	SEGMENT
$pdata$?call@?$functor2@Uvec@glm@@$01M$0A@@detail@glm@@SA?AU?$vec@$01M$0A@@3@P6AMMM@ZAEBU43@1@Z DD imagerel $LN6@call
	DD	imagerel $LN6@call+106
	DD	imagerel $unwind$?call@?$functor2@Uvec@glm@@$01M$0A@@detail@glm@@SA?AU?$vec@$01M$0A@@3@P6AMMM@ZAEBU43@1@Z
pdata	ENDS
;	COMDAT pdata
pdata	SEGMENT
$pdata$?call@?$compute_max_vector@$01M$0A@$0A@@detail@glm@@SA?AU?$vec@$01M$0A@@3@AEBU43@0@Z DD imagerel $LN8@call
	DD	imagerel $LN8@call+97
	DD	imagerel $unwind$?call@?$compute_max_vector@$01M$0A@$0A@@detail@glm@@SA?AU?$vec@$01M$0A@@3@AEBU43@0@Z
pdata	ENDS
;	COMDAT pdata
pdata	SEGMENT
$pdata$?call@?$compute_min_vector@$01M$0A@$0A@@detail@glm@@SA?AU?$vec@$01M$0A@@3@AEBU43@0@Z DD imagerel $LN8@call
	DD	imagerel $LN8@call+97
	DD	imagerel $unwind$?call@?$compute_min_vector@$01M$0A@$0A@@detail@glm@@SA?AU?$vec@$01M$0A@@3@AEBU43@0@Z
pdata	ENDS
;	COMDAT pdata
pdata	SEGMENT
$pdata$??$min@$01M$0A@@glm@@YA?AU?$vec@$01M$0A@@0@AEBU10@0@Z DD imagerel $LN10@min
	DD	imagerel $LN10@min+97
	DD	imagerel $unwind$??$min@$01M$0A@@glm@@YA?AU?$vec@$01M$0A@@0@AEBU10@0@Z
pdata	ENDS
;	COMDAT pdata
pdata	SEGMENT
$pdata$??$max@$01M$0A@@glm@@YA?AU?$vec@$01M$0A@@0@AEBU10@0@Z DD imagerel $LN10@max
	DD	imagerel $LN10@max+97
	DD	imagerel $unwind$??$max@$01M$0A@@glm@@YA?AU?$vec@$01M$0A@@0@AEBU10@0@Z
pdata	ENDS
;	COMDAT pdata
pdata	SEGMENT
$pdata$?call@?$compute_clamp_vector@$01M$0A@$0A@@detail@glm@@SA?AU?$vec@$01M$0A@@3@AEBU43@00@Z DD imagerel $LN20@call
	DD	imagerel $LN20@call+158
	DD	imagerel $unwind$?call@?$compute_clamp_vector@$01M$0A@$0A@@detail@glm@@SA?AU?$vec@$01M$0A@@3@AEBU43@00@Z
pdata	ENDS
;	COMDAT pdata
pdata	SEGMENT
$pdata$?call@?$compute_normalize@$01M$0A@$0A@@detail@glm@@SA?AU?$vec@$01M$0A@@3@AEBU43@@Z DD imagerel $LN21@call
	DD	imagerel $LN21@call+76
	DD	imagerel $unwind$?call@?$compute_normalize@$01M$0A@$0A@@detail@glm@@SA?AU?$vec@$01M$0A@@3@AEBU43@@Z
pdata	ENDS
;	COMDAT pdata
pdata	SEGMENT
$pdata$??$clamp@$01M$0A@@glm@@YA?AU?$vec@$01M$0A@@0@AEBU10@00@Z DD imagerel $LN22@clamp
	DD	imagerel $LN22@clamp+158
	DD	imagerel $unwind$??$clamp@$01M$0A@@glm@@YA?AU?$vec@$01M$0A@@0@AEBU10@00@Z
pdata	ENDS
;	COMDAT pdata
pdata	SEGMENT
$pdata$??$normalize@$01M$0A@@glm@@YA?AU?$vec@$01M$0A@@0@AEBU10@@Z DD imagerel $LN23@normalize
	DD	imagerel $LN23@normalize+76
	DD	imagerel $unwind$??$normalize@$01M$0A@@glm@@YA?AU?$vec@$01M$0A@@0@AEBU10@@Z
pdata	ENDS
;	COMDAT pdata
pdata	SEGMENT
$pdata$?CheckBounds@Entity@@QEAAXAEAVWorld@@@Z DD imagerel $LN28@CheckBound
	DD	imagerel $LN28@CheckBound+147
	DD	imagerel $unwind$?CheckBounds@Entity@@QEAAXAEAVWorld@@@Z
pdata	ENDS
;	COMDAT pdata
pdata	SEGMENT
$pdata$?Intergrate@Entity@@QEAAXAEAVWorld@@@Z DD imagerel $LN22@Intergrate
	DD	imagerel $LN22@Intergrate+144
	DD	imagerel $unwind$?Intergrate@Entity@@QEAAXAEAVWorld@@@Z
pdata	ENDS
;	COMDAT pdata
pdata	SEGMENT
$pdata$?Update@Entity@@QEAAXAEAVWorld@@@Z DD imagerel $LN135@Update
	DD	imagerel $LN135@Update+747
	DD	imagerel $unwind$?Update@Entity@@QEAAXAEAVWorld@@@Z
;	COMDAT xdata
xdata	SEGMENT
$unwind$?Update@Entity@@QEAAXAEAVWorld@@@Z DD 0e5401H
	DD	039854H
	DD	04884fH
	DD	057835H
	DD	06682cH
	DD	0126410H
	DD	0113410H
	DD	0700cd210H
xdata	ENDS
;	COMDAT xdata
xdata	SEGMENT
$unwind$?Intergrate@Entity@@QEAAXAEAVWorld@@@Z DD 074201H
	DD	08842H
	DD	017834H
	DD	02682eH
	DD	06204H
xdata	ENDS
;	COMDAT xdata
xdata	SEGMENT
$unwind$?CheckBounds@Entity@@QEAAXAEAVWorld@@@Z DD 062601H
	DD	028826H
	DD	03781dH
	DD	03006720aH
xdata	ENDS
;	COMDAT xdata
xdata	SEGMENT
$unwind$??$normalize@$01M$0A@@glm@@YA?AU?$vec@$01M$0A@@0@AEBU10@@Z DD 031501H
	DD	06815H
	DD	02204H
xdata	ENDS
;	COMDAT xdata
xdata	SEGMENT
$unwind$??$clamp@$01M$0A@@glm@@YA?AU?$vec@$01M$0A@@0@AEBU10@00@Z DD 0c2e01H
	DD	02782eH
	DD	036825H
	DD	0c6414H
	DD	0b5414H
	DD	0a3414H
	DD	070107214H
xdata	ENDS
;	COMDAT xdata
xdata	SEGMENT
$unwind$?call@?$compute_normalize@$01M$0A@$0A@@detail@glm@@SA?AU?$vec@$01M$0A@@3@AEBU43@@Z DD 031501H
	DD	06815H
	DD	02204H
xdata	ENDS
;	COMDAT xdata
xdata	SEGMENT
$unwind$?call@?$compute_clamp_vector@$01M$0A@$0A@@detail@glm@@SA?AU?$vec@$01M$0A@@3@AEBU43@00@Z DD 0c2e01H
	DD	02782eH
	DD	036825H
	DD	0c6414H
	DD	0b5414H
	DD	0a3414H
	DD	070107214H
xdata	ENDS
;	COMDAT xdata
xdata	SEGMENT
$unwind$??$max@$01M$0A@@glm@@YA?AU?$vec@$01M$0A@@0@AEBU10@0@Z DD 082001H
	DD	026820H
	DD	09640fH
	DD	08340fH
	DD	0700b520fH
xdata	ENDS
;	COMDAT xdata
xdata	SEGMENT
$unwind$??$min@$01M$0A@@glm@@YA?AU?$vec@$01M$0A@@0@AEBU10@0@Z DD 082001H
	DD	026820H
	DD	09640fH
	DD	08340fH
	DD	0700b520fH
xdata	ENDS
;	COMDAT xdata
xdata	SEGMENT
$unwind$?call@?$compute_min_vector@$01M$0A@$0A@@detail@glm@@SA?AU?$vec@$01M$0A@@3@AEBU43@0@Z DD 082001H
	DD	026820H
	DD	09640fH
	DD	08340fH
	DD	0700b520fH
xdata	ENDS
;	COMDAT xdata
xdata	SEGMENT
$unwind$?call@?$compute_max_vector@$01M$0A@$0A@@detail@glm@@SA?AU?$vec@$01M$0A@@3@AEBU43@0@Z DD 082001H
	DD	026820H
	DD	09640fH
	DD	08340fH
	DD	0700b520fH
xdata	ENDS
;	COMDAT xdata
xdata	SEGMENT
$unwind$?call@?$functor2@Uvec@glm@@$01M$0A@@detail@glm@@SA?AU?$vec@$01M$0A@@3@P6AMMM@ZAEBU43@1@Z DD 0a2901H
	DD	026829H
	DD	0a6414H
	DD	095414H
	DD	083414H
	DD	070105214H
END
