; Listing generated by Microsoft (R) Optimizing Compiler Version 19.22.27905.0 

include listing.inc

INCLUDELIB OLDNAMES

PUBLIC	??_R1A@?0A@EA@RenderWindow@sf@@8		; sf::RenderWindow::`RTTI Base Class Descriptor at (0,-1,0,64)'
PUBLIC	??_R18?0A@EN@NonCopyable@sf@@8			; sf::NonCopyable::`RTTI Base Class Descriptor at (9,-1,0,77)'
PUBLIC	??_R0?AVRenderTarget@sf@@@8			; sf::RenderTarget `RTTI Type Descriptor'
PUBLIC	?Running@@3_NA					; Running
PUBLIC	?DeltaTime@@3MA					; DeltaTime
PUBLIC	??_SRenderWindow@sf@@6BWindow@1@@		; sf::RenderWindow::`local vftable'
PUBLIC	?TimeUpdateEntity@@3MA				; TimeUpdateEntity
PUBLIC	??_R18?0A@EP@NonCopyable@sf@@8			; sf::NonCopyable::`RTTI Base Class Descriptor at (9,-1,0,79)'
PUBLIC	??_R4RenderWindow@sf@@6BWindow@1@@		; sf::RenderWindow::`RTTI Complete Object Locator'
PUBLIC	??_R2NonCopyable@sf@@8				; sf::NonCopyable::`RTTI Base Class Array'
PUBLIC	??_R1A@?0A@EA@RenderTarget@sf@@8		; sf::RenderTarget::`RTTI Base Class Descriptor at (0,-1,0,64)'
PUBLIC	??_R3RenderTarget@sf@@8				; sf::RenderTarget::`RTTI Class Hierarchy Descriptor'
PUBLIC	??_R1A@?0A@EA@Window@sf@@8			; sf::Window::`RTTI Base Class Descriptor at (0,-1,0,64)'
PUBLIC	?TimeCollisions@@3MA				; TimeCollisions
PUBLIC	??_R1A@?0A@EA@NonCopyable@sf@@8			; sf::NonCopyable::`RTTI Base Class Descriptor at (0,-1,0,64)'
PUBLIC	??_R3GlResource@sf@@8				; sf::GlResource::`RTTI Class Hierarchy Descriptor'
PUBLIC	?GraphRollingMax@@3MA				; GraphRollingMax
PUBLIC	?TimeSpacialHash@@3MA				; TimeSpacialHash
PUBLIC	?TimeUpdateColonies@@3MA			; TimeUpdateColonies
PUBLIC	?WindowFocused@@3_NA				; WindowFocused
PUBLIC	??_R2GlResource@sf@@8				; sf::GlResource::`RTTI Base Class Array'
PUBLIC	??_R2RenderWindow@sf@@8				; sf::RenderWindow::`RTTI Base Class Array'
PUBLIC	??_R2RenderTarget@sf@@8				; sf::RenderTarget::`RTTI Base Class Array'
PUBLIC	?GraphWidth@@3MA				; GraphWidth
PUBLIC	?FrameCount@@3MA				; FrameCount
PUBLIC	??_R0?AVRenderWindow@sf@@@8			; sf::RenderWindow `RTTI Type Descriptor'
PUBLIC	??_R17?0A@EN@NonCopyable@sf@@8			; sf::NonCopyable::`RTTI Base Class Descriptor at (8,-1,0,77)'
PUBLIC	??_R1DI@?0A@EA@RenderTarget@sf@@8		; sf::RenderTarget::`RTTI Base Class Descriptor at (56,-1,0,64)'
PUBLIC	??_R3RenderWindow@sf@@8				; sf::RenderWindow::`RTTI Class Hierarchy Descriptor'
PUBLIC	?GraphHeight@@3MA				; GraphHeight
PUBLIC	??_R3Window@sf@@8				; sf::Window::`RTTI Class Hierarchy Descriptor'
PUBLIC	??_R0?AVGlResource@sf@@@8			; sf::GlResource `RTTI Type Descriptor'
PUBLIC	??_R1EA@?0A@EP@NonCopyable@sf@@8		; sf::NonCopyable::`RTTI Base Class Descriptor at (64,-1,0,79)'
PUBLIC	??_R1A@?0A@EA@GlResource@sf@@8			; sf::GlResource::`RTTI Base Class Descriptor at (0,-1,0,64)'
PUBLIC	?TexUpdate@@3HA					; TexUpdate
PUBLIC	??_R0?AVWindow@sf@@@8				; sf::Window `RTTI Type Descriptor'
PUBLIC	?RenderTime@@3MA				; RenderTime
PUBLIC	??_R4RenderWindow@sf@@6BRenderTarget@1@@	; sf::RenderWindow::`RTTI Complete Object Locator'
PUBLIC	??_R3NonCopyable@sf@@8				; sf::NonCopyable::`RTTI Class Hierarchy Descriptor'
PUBLIC	??_R17?0A@EN@GlResource@sf@@8			; sf::GlResource::`RTTI Base Class Descriptor at (8,-1,0,77)'
PUBLIC	?WorldMousePos@@3U?$vec@$01M$0A@@glm@@A		; WorldMousePos
PUBLIC	?DisplayPheremone@@3HA				; DisplayPheremone
PUBLIC	?UpdateTime@@3MA				; UpdateTime
PUBLIC	??_R0?AVNonCopyable@sf@@@8			; sf::NonCopyable `RTTI Type Descriptor'
PUBLIC	??_R2Window@sf@@8				; sf::Window::`RTTI Base Class Array'
PUBLIC	??_SRenderWindow@sf@@6BRenderTarget@1@@		; sf::RenderWindow::`local vftable'
PUBLIC	?CameraPosition@@3U?$vec@$01M$0A@@glm@@A	; CameraPosition
PUBLIC	?CameraWidth@@3MA				; CameraWidth
PUBLIC	??_C@_0M@LGKCKPJF@Time?5scale?3@		; `string'
PUBLIC	??_C@_0BJ@HOJDCIP@Colony?5stats?5for?5colony?3@	; `string'
PUBLIC	??_C@_0L@LJMNJOKE@Ant?5stats?6@			; `string'
PUBLIC	??_C@_0L@MHMPFGPN@Ant?5count?3@			; `string'
PUBLIC	??_C@_0O@DONNODGF@Energy?5stats?6@		; `string'
PUBLIC	??_C@_08FGKLNALH@Energy?3?5@			; `string'
PUBLIC	??_C@_08BHLLJEFH@Ant?5test@			; `string'
PUBLIC	??_C@_0BO@LGOMLLHF@Created?5pheremone?5tex?5failed?6@ ; `string'
PUBLIC	??_C@_06MPBMFAPI@?6?5fps?3@			; `string'
PUBLIC	??_C@_0L@CHCJCJFC@Frametime?3@			; `string'
PUBLIC	??_C@_0BI@MDOPHIFM@Frame?5breakdown?5times?3?6@	; `string'
PUBLIC	??_C@_0N@GCFGPAHG@Render?5time?3@		; `string'
PUBLIC	??_C@_0N@ECNNJBAC@Update?5time?3@		; `string'
PUBLIC	??_C@_02MENHEKGM@?$CF?6@			; `string'
PUBLIC	??_C@_0BD@CLGIBFND@Spacial?5hash?5time?3@	; `string'
PUBLIC	??_C@_0BA@OAICCHEL@Collision?5time?3@		; `string'
PUBLIC	??_C@_0BE@HGAPCBED@Entity?5update?5time?3@	; `string'
PUBLIC	??_C@_0BF@JDGAFPMC@Colonie?5update?5time?3@	; `string'
PUBLIC	??_C@_0BB@HMAFMBEN@Total?5ant?5count?3@		; `string'
PUBLIC	??_C@_0P@PGHGLEJB@Saved?5colony?3?5@		; `string'
PUBLIC	??_C@_0P@MCDONFMA@BestColony?4txt@		; `string'
PUBLIC	??_C@_0BJ@PBNHIFNH@?9?9?9?9?9?9?9?9?9?6Elapsed?5time?3?5@ ; `string'
PUBLIC	??_C@_0N@LPFKKEBD@?3AM?3am?3PM?3pm@		; `string'
PUBLIC	??_C@_1BK@MHIKGOKE@?$AA?3?$AAA?$AAM?$AA?3?$AAa?$AAm?$AA?3?$AAP?$AAM?$AA?3?$AAp?$AAm@ ; `string'
EXTRN	__imp_??6?$basic_ostream@DU?$char_traits@D@std@@@std@@QEAAAEAV01@N@Z:PROC
EXTRN	__imp_??6?$basic_ostream@DU?$char_traits@D@std@@@std@@QEAAAEAV01@H@Z:PROC
EXTRN	__imp_??1String@sf@@QEAA@XZ:PROC
EXTRN	__imp__Query_perf_counter:PROC
EXTRN	atexit:PROC
EXTRN	__imp_?isButtonPressed@Mouse@sf@@SA_NW4Button@12@@Z:PROC
EXTRN	__imp_?getPosition@Mouse@sf@@SA?AV?$Vector2@H@2@AEBVWindow@2@@Z:PROC
EXTRN	__imp_??0VideoMode@sf@@QEAA@III@Z:PROC
EXTRN	__imp_??0RectangleShape@sf@@QEAA@AEBV?$Vector2@M@1@@Z:PROC
EXTRN	__imp_?setSize@RectangleShape@sf@@QEAAXAEBV?$Vector2@M@2@@Z:PROC
EXTRN	__imp_??0String@sf@@QEAA@PEBDAEBVlocale@std@@@Z:PROC
EXTRN	__imp_?setTexture@Shape@sf@@QEAAXPEBVTexture@2@_N@Z:PROC
EXTRN	__imp_?setFillColor@Shape@sf@@QEAAXAEBVColor@2@@Z:PROC
EXTRN	__imp_?isKeyPressed@Keyboard@sf@@SA_NW4Key@12@@Z:PROC
EXTRN	__imp_?clear@RenderTarget@sf@@QEAAXAEBVColor@2@@Z:PROC
EXTRN	__imp_?draw@RenderTarget@sf@@QEAAXPEBVVertex@2@_KW4PrimitiveType@2@AEBVRenderStates@2@@Z:PROC
EXTRN	__imp_?draw@RenderTarget@sf@@QEAAXAEBVDrawable@2@AEBVRenderStates@2@@Z:PROC
EXTRN	__imp_?Green@Color@sf@@2V12@B:DWORD
EXTRN	__imp_?close@Window@sf@@QEAAXXZ:PROC
EXTRN	__imp_?isOpen@Window@sf@@QEBA_NXZ:PROC
EXTRN	__imp_?pollEvent@Window@sf@@QEAA_NAEAVEvent@2@@Z:PROC
EXTRN	__imp_?display@Window@sf@@QEAAXXZ:PROC
EXTRN	__imp_??0Vertex@sf@@QEAA@XZ:PROC
EXTRN	__imp_??0Color@sf@@QEAA@EEEE@Z:PROC
EXTRN	__imp_??0RenderWindow@sf@@QEAA@VVideoMode@1@AEBVString@1@IAEBUContextSettings@1@@Z:PROC
EXTRN	__imp_??1RenderWindow@sf@@UEAA@XZ:PROC
EXTRN	?getSize@RenderWindow@sf@@UEBA?AV?$Vector2@I@2@XZ:PROC ; sf::RenderWindow::getSize
EXTRN	__imp_?getSize@RenderWindow@sf@@UEBA?AV?$Vector2@I@2@XZ:PROC
EXTRN	?setActive@RenderWindow@sf@@UEAA_N_N@Z:PROC	; sf::RenderWindow::setActive
EXTRN	__imp_?setActive@RenderWindow@sf@@UEAA_N_N@Z:PROC
EXTRN	?onCreate@RenderWindow@sf@@MEAAXXZ:PROC		; sf::RenderWindow::onCreate
EXTRN	__imp_?onCreate@RenderWindow@sf@@MEAAXXZ:PROC
EXTRN	?onResize@RenderWindow@sf@@MEAAXXZ:PROC		; sf::RenderWindow::onResize
EXTRN	__imp_?onResize@RenderWindow@sf@@MEAAXXZ:PROC
EXTRN	__imp_??0Texture@sf@@QEAA@XZ:PROC
EXTRN	__imp_??1Texture@sf@@QEAA@XZ:PROC
EXTRN	__imp_?create@Texture@sf@@QEAA_NII@Z:PROC
EXTRN	__imp_?update@Texture@sf@@QEAAXPEBE@Z:PROC
EXTRN	__imp_?setPosition@Transformable@sf@@QEAAXMM@Z:PROC
EXTRN	__imp_?setScale@Transformable@sf@@QEAAXMM@Z:PROC
EXTRN	__imp_?setOrigin@Transformable@sf@@QEAAXMM@Z:PROC
EXTRN	__imp_??0CircleShape@sf@@QEAA@M_K@Z:PROC
EXTRN	__imp_?getRadius@CircleShape@sf@@QEBAMXZ:PROC
EXTRN	__imp_?Default@RenderStates@sf@@2V12@B:BYTE
EXTRN	__imp_?_Xbad_alloc@std@@YAXXZ:PROC
EXTRN	__imp_?_Init@locale@std@@CAPEAV_Locimp@12@_N@Z:PROC
EXTRN	__imp__Query_perf_frequency:PROC
EXTRN	__imp_calloc:PROC
EXTRN	__imp__Mbrtowc:PROC
EXTRN	__imp_?_Getcvt@_Locinfo@std@@QEBA?AU_Cvtvec@@XZ:PROC
EXTRN	__imp_?_Getdays@_Locinfo@std@@QEBAPEBDXZ:PROC
EXTRN	__imp_?_Getmonths@_Locinfo@std@@QEBAPEBDXZ:PROC
EXTRN	__imp_?_W_Getdays@_Locinfo@std@@QEBAPEBGXZ:PROC
EXTRN	__imp_?_W_Getmonths@_Locinfo@std@@QEBAPEBGXZ:PROC
EXTRN	__imp_??1CircleShape@sf@@UEAA@XZ:PROC
EXTRN	__imp_??1RectangleShape@sf@@UEAA@XZ:PROC
?DeltaTime@@3MA DD 01H DUP (?)				; DeltaTime
?TimeUpdateEntity@@3MA DD 01H DUP (?)			; TimeUpdateEntity
?TimeCollisions@@3MA DD 01H DUP (?)			; TimeCollisions
?GraphRollingMax@@3MA DD 01H DUP (?)			; GraphRollingMax
?TimeSpacialHash@@3MA DD 01H DUP (?)			; TimeSpacialHash
?TimeUpdateColonies@@3MA DD 01H DUP (?)			; TimeUpdateColonies
?FrameCount@@3MA DD 01H DUP (?)				; FrameCount
?TexUpdate@@3HA DD 01H DUP (?)				; TexUpdate
?RenderTime@@3MA DD 01H DUP (?)				; RenderTime
	ALIGN	8

?WorldMousePos@@3U?$vec@$01M$0A@@glm@@A DQ 01H DUP (?)	; WorldMousePos
?DisplayPheremone@@3HA DD 01H DUP (?)			; DisplayPheremone
?UpdateTime@@3MA DD 01H DUP (?)				; UpdateTime
?CameraPosition@@3U?$vec@$01M$0A@@glm@@A DQ 01H DUP (?)	; CameraPosition
_BSS	ENDS
;	COMDAT ??_C@_1BK@MHIKGOKE@?$AA?3?$AAA?$AAM?$AA?3?$AAa?$AAm?$AA?3?$AAP?$AAM?$AA?3?$AAp?$AAm@
CONST	SEGMENT
??_C@_1BK@MHIKGOKE@?$AA?3?$AAA?$AAM?$AA?3?$AAa?$AAm?$AA?3?$AAP?$AAM?$AA?3?$AAp?$AAm@ DB ':'
	DB	00H, 'A', 00H, 'M', 00H, ':', 00H, 'a', 00H, 'm', 00H, ':', 00H
	DB	'P', 00H, 'M', 00H, ':', 00H, 'p', 00H, 'm', 00H, 00H, 00H ; `string'
CONST	ENDS
;	COMDAT ??_C@_0N@LPFKKEBD@?3AM?3am?3PM?3pm@
CONST	SEGMENT
??_C@_0N@LPFKKEBD@?3AM?3am?3PM?3pm@ DB ':AM:am:PM:pm', 00H ; `string'
CONST	ENDS
;	COMDAT ??_C@_0BJ@PBNHIFNH@?9?9?9?9?9?9?9?9?9?6Elapsed?5time?3?5@
CONST	SEGMENT
??_C@_0BJ@PBNHIFNH@?9?9?9?9?9?9?9?9?9?6Elapsed?5time?3?5@ DB '---------', 0aH
	DB	'Elapsed time: ', 00H			; `string'
CONST	ENDS
;	COMDAT ??_C@_0P@MCDONFMA@BestColony?4txt@
CONST	SEGMENT
??_C@_0P@MCDONFMA@BestColony?4txt@ DB 'BestColony.txt', 00H ; `string'
CONST	ENDS
;	COMDAT ??_C@_0P@PGHGLEJB@Saved?5colony?3?5@
CONST	SEGMENT
??_C@_0P@PGHGLEJB@Saved?5colony?3?5@ DB 'Saved colony: ', 00H ; `string'
CONST	ENDS
;	COMDAT ??_C@_0BB@HMAFMBEN@Total?5ant?5count?3@
CONST	SEGMENT
??_C@_0BB@HMAFMBEN@Total?5ant?5count?3@ DB 'Total ant count:', 00H ; `string'
CONST	ENDS
;	COMDAT ??_C@_0BF@JDGAFPMC@Colonie?5update?5time?3@
CONST	SEGMENT
??_C@_0BF@JDGAFPMC@Colonie?5update?5time?3@ DB 'Colonie update time:', 00H ; `string'
CONST	ENDS
;	COMDAT ??_C@_0BE@HGAPCBED@Entity?5update?5time?3@
CONST	SEGMENT
??_C@_0BE@HGAPCBED@Entity?5update?5time?3@ DB 'Entity update time:', 00H ; `string'
CONST	ENDS
;	COMDAT ??_C@_0BA@OAICCHEL@Collision?5time?3@
CONST	SEGMENT
??_C@_0BA@OAICCHEL@Collision?5time?3@ DB 'Collision time:', 00H ; `string'
CONST	ENDS
;	COMDAT ??_C@_0BD@CLGIBFND@Spacial?5hash?5time?3@
CONST	SEGMENT
??_C@_0BD@CLGIBFND@Spacial?5hash?5time?3@ DB 'Spacial hash time:', 00H ; `string'
CONST	ENDS
;	COMDAT ??_C@_02MENHEKGM@?$CF?6@
CONST	SEGMENT
??_C@_02MENHEKGM@?$CF?6@ DB '%', 0aH, 00H		; `string'
CONST	ENDS
;	COMDAT ??_C@_0N@ECNNJBAC@Update?5time?3@
CONST	SEGMENT
??_C@_0N@ECNNJBAC@Update?5time?3@ DB 'Update time:', 00H ; `string'
CONST	ENDS
;	COMDAT ??_C@_0N@GCFGPAHG@Render?5time?3@
CONST	SEGMENT
??_C@_0N@GCFGPAHG@Render?5time?3@ DB 'Render time:', 00H ; `string'
CONST	ENDS
;	COMDAT ??_C@_0BI@MDOPHIFM@Frame?5breakdown?5times?3?6@
CONST	SEGMENT
??_C@_0BI@MDOPHIFM@Frame?5breakdown?5times?3?6@ DB 'Frame breakdown times'
	DB	':', 0aH, 00H				; `string'
CONST	ENDS
;	COMDAT ??_C@_0L@CHCJCJFC@Frametime?3@
CONST	SEGMENT
??_C@_0L@CHCJCJFC@Frametime?3@ DB 'Frametime:', 00H	; `string'
CONST	ENDS
;	COMDAT ??_C@_06MPBMFAPI@?6?5fps?3@
CONST	SEGMENT
??_C@_06MPBMFAPI@?6?5fps?3@ DB 0aH, ' fps:', 00H	; `string'
CONST	ENDS
;	COMDAT ??_C@_0BO@LGOMLLHF@Created?5pheremone?5tex?5failed?6@
CONST	SEGMENT
??_C@_0BO@LGOMLLHF@Created?5pheremone?5tex?5failed?6@ DB 'Created pheremo'
	DB	'ne tex failed', 0aH, 00H			; `string'
CONST	ENDS
;	COMDAT ??_C@_08BHLLJEFH@Ant?5test@
CONST	SEGMENT
??_C@_08BHLLJEFH@Ant?5test@ DB 'Ant test', 00H		; `string'
CONST	ENDS
;	COMDAT ??_C@_08FGKLNALH@Energy?3?5@
CONST	SEGMENT
??_C@_08FGKLNALH@Energy?3?5@ DB 'Energy: ', 00H		; `string'
CONST	ENDS
;	COMDAT ??_C@_0O@DONNODGF@Energy?5stats?6@
CONST	SEGMENT
??_C@_0O@DONNODGF@Energy?5stats?6@ DB 'Energy stats', 0aH, 00H ; `string'
CONST	ENDS
;	COMDAT ??_C@_0L@MHMPFGPN@Ant?5count?3@
CONST	SEGMENT
??_C@_0L@MHMPFGPN@Ant?5count?3@ DB 'Ant count:', 00H	; `string'
CONST	ENDS
;	COMDAT ??_C@_0L@LJMNJOKE@Ant?5stats?6@
CONST	SEGMENT
??_C@_0L@LJMNJOKE@Ant?5stats?6@ DB 'Ant stats', 0aH, 00H ; `string'
CONST	ENDS
;	COMDAT ??_C@_0BJ@HOJDCIP@Colony?5stats?5for?5colony?3@
CONST	SEGMENT
??_C@_0BJ@HOJDCIP@Colony?5stats?5for?5colony?3@ DB 'Colony stats for colo'
	DB	'ny:', 00H					; `string'
CONST	ENDS
;	COMDAT ??_C@_0M@LGKCKPJF@Time?5scale?3@
CONST	SEGMENT
??_C@_0M@LGKCKPJF@Time?5scale?3@ DB 'Time scale:', 00H	; `string'
CONST	ENDS
;	COMDAT ??_SRenderWindow@sf@@6BRenderTarget@1@@
CONST	SEGMENT
??_SRenderWindow@sf@@6BRenderTarget@1@@ DQ FLAT:??_R4RenderWindow@sf@@6BRenderTarget@1@@ ; sf::RenderWindow::`local vftable'
	DQ	FLAT:??_ERenderWindow@sf@@WDI@EAAPEAXI@Z
	DQ	FLAT:?getSize@RenderWindow@sf@@UEBA?AV?$Vector2@I@2@XZ
	DQ	FLAT:?setActive@RenderWindow@sf@@UEAA_N_N@Z
CONST	ENDS
;	COMDAT ??_R2Window@sf@@8
rdata$r	SEGMENT
??_R2Window@sf@@8 DD imagerel ??_R1A@?0A@EA@Window@sf@@8 ; sf::Window::`RTTI Base Class Array'
	DD	imagerel ??_R17?0A@EN@GlResource@sf@@8
	DD	imagerel ??_R18?0A@EN@NonCopyable@sf@@8
	ORG $+3
rdata$r	ENDS
;	COMDAT ??_R0?AVNonCopyable@sf@@@8
data$r	SEGMENT
??_R0?AVNonCopyable@sf@@@8 DQ FLAT:??_7type_info@@6B@	; sf::NonCopyable `RTTI Type Descriptor'
	DQ	0000000000000000H
	DB	'.?AVNonCopyable@sf@@', 00H
data$r	ENDS
;	COMDAT ??_R17?0A@EN@GlResource@sf@@8
rdata$r	SEGMENT
??_R17?0A@EN@GlResource@sf@@8 DD imagerel ??_R0?AVGlResource@sf@@@8 ; sf::GlResource::`RTTI Base Class Descriptor at (8,-1,0,77)'
	DD	00H
	DD	08H
	DD	0ffffffffH
	DD	00H
	DD	04dH
	DD	imagerel ??_R3GlResource@sf@@8
rdata$r	ENDS
;	COMDAT ??_R3NonCopyable@sf@@8
rdata$r	SEGMENT
??_R3NonCopyable@sf@@8 DD 00H				; sf::NonCopyable::`RTTI Class Hierarchy Descriptor'
	DD	00H
	DD	01H
	DD	imagerel ??_R2NonCopyable@sf@@8
rdata$r	ENDS
;	COMDAT ??_R4RenderWindow@sf@@6BRenderTarget@1@@
rdata$r	SEGMENT
??_R4RenderWindow@sf@@6BRenderTarget@1@@ DD 01H		; sf::RenderWindow::`RTTI Complete Object Locator'
	DD	038H
	DD	00H
	DD	imagerel ??_R0?AVRenderWindow@sf@@@8
	DD	imagerel ??_R3RenderWindow@sf@@8
	DD	imagerel ??_R4RenderWindow@sf@@6BRenderTarget@1@@
rdata$r	ENDS
;	COMDAT ??_R0?AVWindow@sf@@@8
data$r	SEGMENT
??_R0?AVWindow@sf@@@8 DQ FLAT:??_7type_info@@6B@	; sf::Window `RTTI Type Descriptor'
	DQ	0000000000000000H
	DB	'.?AVWindow@sf@@', 00H
data$r	ENDS
;	COMDAT ??_R1A@?0A@EA@GlResource@sf@@8
rdata$r	SEGMENT
??_R1A@?0A@EA@GlResource@sf@@8 DD imagerel ??_R0?AVGlResource@sf@@@8 ; sf::GlResource::`RTTI Base Class Descriptor at (0,-1,0,64)'
	DD	00H
	DD	00H
	DD	0ffffffffH
	DD	00H
	DD	040H
	DD	imagerel ??_R3GlResource@sf@@8
rdata$r	ENDS
;	COMDAT ??_R1EA@?0A@EP@NonCopyable@sf@@8
rdata$r	SEGMENT
??_R1EA@?0A@EP@NonCopyable@sf@@8 DD imagerel ??_R0?AVNonCopyable@sf@@@8 ; sf::NonCopyable::`RTTI Base Class Descriptor at (64,-1,0,79)'
	DD	00H
	DD	040H
	DD	0ffffffffH
	DD	00H
	DD	04fH
	DD	imagerel ??_R3NonCopyable@sf@@8
rdata$r	ENDS
;	COMDAT ??_R0?AVGlResource@sf@@@8
data$r	SEGMENT
??_R0?AVGlResource@sf@@@8 DQ FLAT:??_7type_info@@6B@	; sf::GlResource `RTTI Type Descriptor'
	DQ	0000000000000000H
	DB	'.?AVGlResource@sf@@', 00H
data$r	ENDS
;	COMDAT ??_R3Window@sf@@8
rdata$r	SEGMENT
??_R3Window@sf@@8 DD 00H				; sf::Window::`RTTI Class Hierarchy Descriptor'
	DD	01H
	DD	03H
	DD	imagerel ??_R2Window@sf@@8
rdata$r	ENDS
;	COMDAT ??_R3RenderWindow@sf@@8
rdata$r	SEGMENT
??_R3RenderWindow@sf@@8 DD 00H				; sf::RenderWindow::`RTTI Class Hierarchy Descriptor'
	DD	05H
	DD	06H
	DD	imagerel ??_R2RenderWindow@sf@@8
rdata$r	ENDS
;	COMDAT ??_R1DI@?0A@EA@RenderTarget@sf@@8
rdata$r	SEGMENT
??_R1DI@?0A@EA@RenderTarget@sf@@8 DD imagerel ??_R0?AVRenderTarget@sf@@@8 ; sf::RenderTarget::`RTTI Base Class Descriptor at (56,-1,0,64)'
	DD	01H
	DD	038H
	DD	0ffffffffH
	DD	00H
	DD	040H
	DD	imagerel ??_R3RenderTarget@sf@@8
rdata$r	ENDS
;	COMDAT ??_R17?0A@EN@NonCopyable@sf@@8
rdata$r	SEGMENT
??_R17?0A@EN@NonCopyable@sf@@8 DD imagerel ??_R0?AVNonCopyable@sf@@@8 ; sf::NonCopyable::`RTTI Base Class Descriptor at (8,-1,0,77)'
	DD	00H
	DD	08H
	DD	0ffffffffH
	DD	00H
	DD	04dH
	DD	imagerel ??_R3NonCopyable@sf@@8
rdata$r	ENDS
;	COMDAT ??_R0?AVRenderWindow@sf@@@8
data$r	SEGMENT
??_R0?AVRenderWindow@sf@@@8 DQ FLAT:??_7type_info@@6B@	; sf::RenderWindow `RTTI Type Descriptor'
	DQ	0000000000000000H
	DB	'.?AVRenderWindow@sf@@', 00H
data$r	ENDS
;	COMDAT ??_R2RenderTarget@sf@@8
rdata$r	SEGMENT
??_R2RenderTarget@sf@@8 DD imagerel ??_R1A@?0A@EA@RenderTarget@sf@@8 ; sf::RenderTarget::`RTTI Base Class Array'
	DD	imagerel ??_R17?0A@EN@NonCopyable@sf@@8
	ORG $+3
rdata$r	ENDS
;	COMDAT ??_R2RenderWindow@sf@@8
rdata$r	SEGMENT
??_R2RenderWindow@sf@@8 DD imagerel ??_R1A@?0A@EA@RenderWindow@sf@@8 ; sf::RenderWindow::`RTTI Base Class Array'
	DD	imagerel ??_R1A@?0A@EA@Window@sf@@8
	DD	imagerel ??_R17?0A@EN@GlResource@sf@@8
	DD	imagerel ??_R18?0A@EP@NonCopyable@sf@@8
	DD	imagerel ??_R1DI@?0A@EA@RenderTarget@sf@@8
	DD	imagerel ??_R1EA@?0A@EP@NonCopyable@sf@@8
	ORG $+3
rdata$r	ENDS
;	COMDAT ??_R2GlResource@sf@@8
rdata$r	SEGMENT
??_R2GlResource@sf@@8 DD imagerel ??_R1A@?0A@EA@GlResource@sf@@8 ; sf::GlResource::`RTTI Base Class Array'
	ORG $+3
rdata$r	ENDS
;	COMDAT ??_R3GlResource@sf@@8
rdata$r	SEGMENT
??_R3GlResource@sf@@8 DD 00H				; sf::GlResource::`RTTI Class Hierarchy Descriptor'
	DD	00H
	DD	01H
	DD	imagerel ??_R2GlResource@sf@@8
rdata$r	ENDS
;	COMDAT ??_R1A@?0A@EA@NonCopyable@sf@@8
rdata$r	SEGMENT
??_R1A@?0A@EA@NonCopyable@sf@@8 DD imagerel ??_R0?AVNonCopyable@sf@@@8 ; sf::NonCopyable::`RTTI Base Class Descriptor at (0,-1,0,64)'
	DD	00H
	DD	00H
	DD	0ffffffffH
	DD	00H
	DD	040H
	DD	imagerel ??_R3NonCopyable@sf@@8
rdata$r	ENDS
;	COMDAT ??_R1A@?0A@EA@Window@sf@@8
rdata$r	SEGMENT
??_R1A@?0A@EA@Window@sf@@8 DD imagerel ??_R0?AVWindow@sf@@@8 ; sf::Window::`RTTI Base Class Descriptor at (0,-1,0,64)'
	DD	02H
	DD	00H
	DD	0ffffffffH
	DD	00H
	DD	040H
	DD	imagerel ??_R3Window@sf@@8
rdata$r	ENDS
;	COMDAT ??_R3RenderTarget@sf@@8
rdata$r	SEGMENT
??_R3RenderTarget@sf@@8 DD 00H				; sf::RenderTarget::`RTTI Class Hierarchy Descriptor'
	DD	00H
	DD	02H
	DD	imagerel ??_R2RenderTarget@sf@@8
rdata$r	ENDS
;	COMDAT ??_R1A@?0A@EA@RenderTarget@sf@@8
rdata$r	SEGMENT
??_R1A@?0A@EA@RenderTarget@sf@@8 DD imagerel ??_R0?AVRenderTarget@sf@@@8 ; sf::RenderTarget::`RTTI Base Class Descriptor at (0,-1,0,64)'
	DD	01H
	DD	00H
	DD	0ffffffffH
	DD	00H
	DD	040H
	DD	imagerel ??_R3RenderTarget@sf@@8
rdata$r	ENDS
;	COMDAT ??_R2NonCopyable@sf@@8
rdata$r	SEGMENT
??_R2NonCopyable@sf@@8 DD imagerel ??_R1A@?0A@EA@NonCopyable@sf@@8 ; sf::NonCopyable::`RTTI Base Class Array'
	ORG $+3
rdata$r	ENDS
;	COMDAT ??_R4RenderWindow@sf@@6BWindow@1@@
rdata$r	SEGMENT
??_R4RenderWindow@sf@@6BWindow@1@@ DD 01H		; sf::RenderWindow::`RTTI Complete Object Locator'
	DD	00H
	DD	00H
	DD	imagerel ??_R0?AVRenderWindow@sf@@@8
	DD	imagerel ??_R3RenderWindow@sf@@8
	DD	imagerel ??_R4RenderWindow@sf@@6BWindow@1@@
rdata$r	ENDS
;	COMDAT ??_R18?0A@EP@NonCopyable@sf@@8
rdata$r	SEGMENT
??_R18?0A@EP@NonCopyable@sf@@8 DD imagerel ??_R0?AVNonCopyable@sf@@@8 ; sf::NonCopyable::`RTTI Base Class Descriptor at (9,-1,0,79)'
	DD	00H
	DD	09H
	DD	0ffffffffH
	DD	00H
	DD	04fH
	DD	imagerel ??_R3NonCopyable@sf@@8
rdata$r	ENDS
;	COMDAT ??_SRenderWindow@sf@@6BWindow@1@@
CONST	SEGMENT
??_SRenderWindow@sf@@6BWindow@1@@ DQ FLAT:??_R4RenderWindow@sf@@6BWindow@1@@ ; sf::RenderWindow::`local vftable'
	DQ	FLAT:??_ERenderWindow@sf@@UEAAPEAXI@Z
	DQ	FLAT:?onCreate@RenderWindow@sf@@MEAAXXZ
	DQ	FLAT:?onResize@RenderWindow@sf@@MEAAXXZ
?Running@@3_NA DB 01H					; Running
?WindowFocused@@3_NA DB 01H				; WindowFocused
	ORG $+2
?CameraWidth@@3MA DD 042c80000r			; 100	; CameraWidth
_DATA	ENDS
;	COMDAT ??_R0?AVRenderTarget@sf@@@8
data$r	SEGMENT
??_R0?AVRenderTarget@sf@@@8 DQ FLAT:??_7type_info@@6B@	; sf::RenderTarget `RTTI Type Descriptor'
	DQ	0000000000000000H
	DB	'.?AVRenderTarget@sf@@', 00H
data$r	ENDS
;	COMDAT ??_R18?0A@EN@NonCopyable@sf@@8
rdata$r	SEGMENT
??_R18?0A@EN@NonCopyable@sf@@8 DD imagerel ??_R0?AVNonCopyable@sf@@@8 ; sf::NonCopyable::`RTTI Base Class Descriptor at (9,-1,0,77)'
	DD	00H
	DD	09H
	DD	0ffffffffH
	DD	00H
	DD	04dH
	DD	imagerel ??_R3NonCopyable@sf@@8
rdata$r	ENDS
;	COMDAT ??_R1A@?0A@EA@RenderWindow@sf@@8
rdata$r	SEGMENT
??_R1A@?0A@EA@RenderWindow@sf@@8 DD imagerel ??_R0?AVRenderWindow@sf@@@8 ; sf::RenderWindow::`RTTI Base Class Descriptor at (0,-1,0,64)'
	DD	05H
	DD	00H
	DD	0ffffffffH
	DD	00H
	DD	040H
	DD	imagerel ??_R3RenderWindow@sf@@8
?GraphWidth@@3MA DD 043480000r			; 200	; GraphWidth
?GraphHeight@@3MA DD 043480000r			; 200	; GraphHeight
PUBLIC	??_ERenderWindow@sf@@WDI@EAAPEAXI@Z		; [thunk]:sf::RenderWindow::`vector deleting destructor'
PUBLIC	??$construct@VVertex@sf@@V12@@?$_Default_allocator_traits@V?$allocator@VVertex@sf@@@std@@@std@@SAXAEAV?$allocator@VVertex@sf@@@1@QEAVVertex@sf@@$$QEAV34@@Z ; std::_Default_allocator_traits<std::allocator<sf::Vertex> >::construct<sf::Vertex,sf::Vertex>
PUBLIC	??$forward@VVertex@sf@@@std@@YA$$QEAVVertex@sf@@AEAV12@@Z ; std::forward<sf::Vertex>
PUBLIC	??$_Emplace_back@VVertex@sf@@@?$_Uninitialized_backout_al@V?$allocator@VVertex@sf@@@std@@@std@@QEAAX$$QEAVVertex@sf@@@Z ; std::_Uninitialized_backout_al<std::allocator<sf::Vertex> >::_Emplace_back<sf::Vertex>
PUBLIC	??$move@AEAVVertex@sf@@@std@@YA$$QEAVVertex@sf@@AEAV12@@Z ; std::move<sf::Vertex &>
PUBLIC	??$_Get_unwrapped@VVertex@sf@@@std@@YAPEAVVertex@sf@@QEAV12@@Z ; std::_Get_unwrapped<sf::Vertex>
PUBLIC	??$construct@VVertex@sf@@$$V@?$_Default_allocator_traits@V?$allocator@VVertex@sf@@@std@@@std@@SAXAEAV?$allocator@VVertex@sf@@@1@QEAVVertex@sf@@@Z ; std::_Default_allocator_traits<std::allocator<sf::Vertex> >::construct<sf::Vertex>
PUBLIC	??$_Unfancy@VVertex@sf@@@std@@YAPEAVVertex@sf@@PEAV12@@Z ; std::_Unfancy<sf::Vertex>
PUBLIC	??$forward@AEAPEAVRenderWindow@sf@@@std@@YAAEAPEAVRenderWindow@sf@@AEAPEAV12@@Z ; std::forward<sf::RenderWindow * &>
PUBLIC	??$forward@AEAPEAVWorld@@@std@@YAAEAPEAVWorld@@AEAPEAV1@@Z ; std::forward<World * &>
PUBLIC	??$forward@AEAPEAVTexture@sf@@@std@@YAAEAPEAVTexture@sf@@AEAPEAV12@@Z ; std::forward<sf::Texture * &>
PUBLIC	??$_Uninitialized_move@PEAVVertex@sf@@V?$allocator@VVertex@sf@@@std@@@std@@YAPEAVVertex@sf@@QEAV12@0PEAV12@AEAV?$allocator@VVertex@sf@@@0@@Z ; std::_Uninitialized_move<sf::Vertex *,std::allocator<sf::Vertex> >
PUBLIC	??$_Get_size_of_n@$0BE@@std@@YA_K_K@Z		; std::_Get_size_of_n<20>
PUBLIC	??$_Emplace_back@$$V@?$_Uninitialized_backout_al@V?$allocator@VVertex@sf@@@std@@@std@@QEAAXXZ ; std::_Uninitialized_backout_al<std::allocator<sf::Vertex> >::_Emplace_back<>
PUBLIC	??$_Zero_range@PEAE@std@@YAPEAEQEAE0@Z		; std::_Zero_range<unsigned char *>
PUBLIC	??$_Unfancy@E@std@@YAPEAEPEAE@Z			; std::_Unfancy<unsigned char>
PUBLIC	??$?RAEAHAEAH@?$plus@X@std@@QEBAHAEAH0@Z	; std::plus<void>::operator()<int &,int &>
PUBLIC	??$_Adl_verify_range@V?$_Array_iterator@H$05@std@@V12@@std@@YAXAEBV?$_Array_iterator@H$05@0@0@Z ; std::_Adl_verify_range<std::_Array_iterator<int,6>,std::_Array_iterator<int,6> >
PUBLIC	??$?0AEAPEAVRenderWindow@sf@@@?$_Compressed_pair@U?$default_delete@VRenderWindow@sf@@@std@@PEAVRenderWindow@sf@@$00@std@@QEAA@U_Zero_then_variadic_args_t@1@AEAPEAVRenderWindow@sf@@@Z ; std::_Compressed_pair<std::default_delete<sf::RenderWindow>,sf::RenderWindow *,1>::_Compressed_pair<std::default_delete<sf::RenderWindow>,sf::RenderWindow *,1><sf::RenderWindow * &>
PUBLIC	??$?0AEAPEAVWorld@@@?$_Compressed_pair@U?$default_delete@VWorld@@@std@@PEAVWorld@@$00@std@@QEAA@U_Zero_then_variadic_args_t@1@AEAPEAVWorld@@@Z ; std::_Compressed_pair<std::default_delete<World>,World *,1>::_Compressed_pair<std::default_delete<World>,World *,1><World * &>
PUBLIC	??$?0AEAPEAVTexture@sf@@@?$_Compressed_pair@U?$default_delete@VTexture@sf@@@std@@PEAVTexture@sf@@$00@std@@QEAA@U_Zero_then_variadic_args_t@1@AEAPEAVTexture@sf@@@Z ; std::_Compressed_pair<std::default_delete<sf::Texture>,sf::Texture *,1>::_Compressed_pair<std::default_delete<sf::Texture>,sf::Texture *,1><sf::Texture * &>
PUBLIC	?_Get_first@?$_Compressed_pair@V?$allocator@VVertex@sf@@@std@@V?$_Vector_val@U?$_Simple_types@VVertex@sf@@@std@@@2@$00@std@@QEBAAEBV?$allocator@VVertex@sf@@@2@XZ ; std::_Compressed_pair<std::allocator<sf::Vertex>,std::_Vector_val<std::_Simple_types<sf::Vertex> >,1>::_Get_first
PUBLIC	?capacity@?$vector@VVertex@sf@@V?$allocator@VVertex@sf@@@std@@@std@@QEBA_KXZ ; std::vector<sf::Vertex,std::allocator<sf::Vertex> >::capacity
PUBLIC	?_Umove_if_noexcept1@?$vector@VVertex@sf@@V?$allocator@VVertex@sf@@@std@@@std@@AEAAXPEAVVertex@sf@@00U?$integral_constant@_N$00@2@@Z ; std::vector<sf::Vertex,std::allocator<sf::Vertex> >::_Umove_if_noexcept1
PUBLIC	?_Getal@?$vector@VVertex@sf@@V?$allocator@VVertex@sf@@@std@@@std@@AEBAAEBV?$allocator@VVertex@sf@@@2@XZ ; std::vector<sf::Vertex,std::allocator<sf::Vertex> >::_Getal
PUBLIC	?max_size@?$_Default_allocator_traits@V?$allocator@VVertex@sf@@@std@@@std@@SA_KAEBV?$allocator@VVertex@sf@@@2@@Z ; std::_Default_allocator_traits<std::allocator<sf::Vertex> >::max_size
PUBLIC	?allocate@?$allocator@VVertex@sf@@@std@@QEAAPEAVVertex@sf@@_K@Z ; std::allocator<sf::Vertex>::allocate
PUBLIC	?max_size@?$vector@VVertex@sf@@V?$allocator@VVertex@sf@@@std@@@std@@QEBA_KXZ ; std::vector<sf::Vertex,std::allocator<sf::Vertex> >::max_size
PUBLIC	?_Umove_if_noexcept@?$vector@VVertex@sf@@V?$allocator@VVertex@sf@@@std@@@std@@AEAAXPEAVVertex@sf@@00@Z ; std::vector<sf::Vertex,std::allocator<sf::Vertex> >::_Umove_if_noexcept
PUBLIC	?_Calculate_growth@?$vector@VVertex@sf@@V?$allocator@VVertex@sf@@@std@@@std@@AEBA_K_K@Z ; std::vector<sf::Vertex,std::allocator<sf::Vertex> >::_Calculate_growth
PUBLIC	?_Change_array@?$vector@VVertex@sf@@V?$allocator@VVertex@sf@@@std@@@std@@AEAAXQEAVVertex@sf@@_K1@Z ; std::vector<sf::Vertex,std::allocator<sf::Vertex> >::_Change_array
PUBLIC	?_Xlength@?$vector@VVertex@sf@@V?$allocator@VVertex@sf@@@std@@@std@@CAXXZ ; std::vector<sf::Vertex,std::allocator<sf::Vertex> >::_Xlength
PUBLIC	??0?$_Uninitialized_backout_al@V?$allocator@VVertex@sf@@@std@@@std@@QEAA@PEAVVertex@sf@@AEAV?$allocator@VVertex@sf@@@1@@Z ; std::_Uninitialized_backout_al<std::allocator<sf::Vertex> >::_Uninitialized_backout_al<std::allocator<sf::Vertex> >
PUBLIC	??1?$_Uninitialized_backout_al@V?$allocator@VVertex@sf@@@std@@@std@@QEAA@XZ ; std::_Uninitialized_backout_al<std::allocator<sf::Vertex> >::~_Uninitialized_backout_al<std::allocator<sf::Vertex> >
PUBLIC	?_Release@?$_Uninitialized_backout_al@V?$allocator@VVertex@sf@@@std@@@std@@QEAAPEAVVertex@sf@@XZ ; std::_Uninitialized_backout_al<std::allocator<sf::Vertex> >::_Release
PUBLIC	?__autoclassinit2@?$_Uninitialized_backout_al@V?$allocator@VVertex@sf@@@std@@@std@@QEAAX_K@Z ; std::_Uninitialized_backout_al<std::allocator<sf::Vertex> >::__autoclassinit2
PUBLIC	??_G?$vector@MV?$allocator@M@std@@@std@@QEAAPEAXI@Z ; std::vector<float,std::allocator<float> >::`scalar deleting destructor'
PUBLIC	??$_Uninitialized_value_construct_n@V?$allocator@VVertex@sf@@@std@@@std@@YAPEAVVertex@sf@@PEAV12@_KAEAV?$allocator@VVertex@sf@@@0@@Z ; std::_Uninitialized_value_construct_n<std::allocator<sf::Vertex> >
PUBLIC	??$_Uninitialized_value_construct_n@V?$allocator@E@std@@@std@@YAPEAEPEAE_KAEAV?$allocator@E@0@@Z ; std::_Uninitialized_value_construct_n<std::allocator<unsigned char> >
PUBLIC	??$destroy@V?$vector@MV?$allocator@M@std@@@std@@@?$_Default_allocator_traits@V?$allocator@V?$vector@MV?$allocator@M@std@@@std@@@std@@@std@@SAXAEAV?$allocator@V?$vector@MV?$allocator@M@std@@@std@@@1@QEAV?$vector@MV?$allocator@M@std@@@1@@Z ; std::_Default_allocator_traits<std::allocator<std::vector<float,std::allocator<float> > > >::destroy<std::vector<float,std::allocator<float> > >
PUBLIC	??$_Unfancy@V?$vector@MV?$allocator@M@std@@@std@@@std@@YAPEAV?$vector@MV?$allocator@M@std@@@0@PEAV10@@Z ; std::_Unfancy<std::vector<float,std::allocator<float> > >
PUBLIC	??$_Resize_reallocate@U_Value_init_tag@std@@@?$vector@VVertex@sf@@V?$allocator@VVertex@sf@@@std@@@std@@AEAAX_KAEBU_Value_init_tag@1@@Z ; std::vector<sf::Vertex,std::allocator<sf::Vertex> >::_Resize_reallocate<std::_Value_init_tag>
PUBLIC	??$forward@AEBV?$allocator@E@std@@@std@@YAAEBV?$allocator@E@0@AEBV10@@Z ; std::forward<std::allocator<unsigned char> const &>
PUBLIC	?_Unwrapped@?$_Array_const_iterator@H$05@std@@QEBAPEBHXZ ; std::_Array_const_iterator<int,6>::_Unwrapped
PUBLIC	?_Unwrapped@?$_Array_iterator@H$05@std@@QEBAPEAHXZ ; std::_Array_iterator<int,6>::_Unwrapped
PUBLIC	??$_Get_unwrapped@V?$_Array_iterator@H$05@std@@$0A@@std@@YAPEAHAEBV?$_Array_iterator@H$05@0@@Z ; std::_Get_unwrapped<std::_Array_iterator<int,6>,0>
PUBLIC	??$accumulate@V?$_Array_iterator@H$05@std@@HU?$plus@X@2@@std@@YAHV?$_Array_iterator@H$05@0@0HU?$plus@X@0@@Z ; std::accumulate<std::_Array_iterator<int,6>,int,std::plus<void> >
PUBLIC	??$?0U?$default_delete@VRenderWindow@sf@@@std@@$0A@@?$unique_ptr@VRenderWindow@sf@@U?$default_delete@VRenderWindow@sf@@@std@@@std@@QEAA@PEAVRenderWindow@sf@@@Z ; std::unique_ptr<sf::RenderWindow,std::default_delete<sf::RenderWindow> >::unique_ptr<sf::RenderWindow,std::default_delete<sf::RenderWindow> ><std::default_delete<sf::RenderWindow>,0>
PUBLIC	??$forward@AEAY08$$CBD@std@@YAAEAY08$$CBDAEAY08$$CBD@Z ; std::forward<char const (&)[9]>
PUBLIC	??$forward@VVideoMode@sf@@@std@@YA$$QEAVVideoMode@sf@@AEAV12@@Z ; std::forward<sf::VideoMode>
PUBLIC	??$?0U?$default_delete@VWorld@@@std@@$0A@@?$unique_ptr@VWorld@@U?$default_delete@VWorld@@@std@@@std@@QEAA@PEAVWorld@@@Z ; std::unique_ptr<World,std::default_delete<World> >::unique_ptr<World,std::default_delete<World> ><std::default_delete<World>,0>
PUBLIC	??$?G_JU?$ratio@$00$0DLJKMKAA@@std@@_JU01@@chrono@std@@YA?AV?$duration@_JU?$ratio@$00$0DLJKMKAA@@std@@@01@AEBV201@0@Z ; std::chrono::operator-<__int64,std::ratio<1,1000000000>,__int64,std::ratio<1,1000000000> >
PUBLIC	??$?0U?$default_delete@VTexture@sf@@@std@@$0A@@?$unique_ptr@VTexture@sf@@U?$default_delete@VTexture@sf@@@std@@@std@@QEAA@PEAVTexture@sf@@@Z ; std::unique_ptr<sf::Texture,std::default_delete<sf::Texture> >::unique_ptr<sf::Texture,std::default_delete<sf::Texture> ><std::default_delete<sf::Texture>,0>
PUBLIC	??$?0$$V@?$_Compressed_pair@U?$default_delete@VRenderWindow@sf@@@std@@PEAVRenderWindow@sf@@$00@std@@QEAA@U_Zero_then_variadic_args_t@1@@Z ; std::_Compressed_pair<std::default_delete<sf::RenderWindow>,sf::RenderWindow *,1>::_Compressed_pair<std::default_delete<sf::RenderWindow>,sf::RenderWindow *,1><>
PUBLIC	??$?0$$V@?$_Compressed_pair@U?$default_delete@VWorld@@@std@@PEAVWorld@@$00@std@@QEAA@U_Zero_then_variadic_args_t@1@@Z ; std::_Compressed_pair<std::default_delete<World>,World *,1>::_Compressed_pair<std::default_delete<World>,World *,1><>
PUBLIC	?_Get_first@?$_Compressed_pair@V?$allocator@E@std@@V?$_Vector_val@U?$_Simple_types@E@std@@@2@$00@std@@QEBAAEBV?$allocator@E@2@XZ ; std::_Compressed_pair<std::allocator<unsigned char>,std::_Vector_val<std::_Simple_types<unsigned char> >,1>::_Get_first
PUBLIC	?allocate@?$allocator@E@std@@QEAAPEAE_K@Z	; std::allocator<unsigned char>::allocate
PUBLIC	?_Getal@?$vector@EV?$allocator@E@std@@@std@@AEBAAEBV?$allocator@E@2@XZ ; std::vector<unsigned char,std::allocator<unsigned char> >::_Getal
PUBLIC	?max_size@?$_Default_allocator_traits@V?$allocator@E@std@@@std@@SA_KAEBV?$allocator@E@2@@Z ; std::_Default_allocator_traits<std::allocator<unsigned char> >::max_size
PUBLIC	?max_size@?$vector@EV?$allocator@E@std@@@std@@QEBA_KXZ ; std::vector<unsigned char,std::allocator<unsigned char> >::max_size
PUBLIC	?_Buy_raw@?$vector@EV?$allocator@E@std@@@std@@AEAAX_K@Z ; std::vector<unsigned char,std::allocator<unsigned char> >::_Buy_raw
PUBLIC	?_Xlength@?$vector@EV?$allocator@E@std@@@std@@CAXXZ ; std::vector<unsigned char,std::allocator<unsigned char> >::_Xlength
PUBLIC	??0?$allocator@VVertex@sf@@@std@@QEAA@XZ	; std::allocator<sf::Vertex>::allocator<sf::Vertex>
PUBLIC	?_Ufill@?$vector@VVertex@sf@@V?$allocator@VVertex@sf@@@std@@@std@@AEAAPEAVVertex@sf@@PEAV34@_KU_Value_init_tag@2@@Z ; std::vector<sf::Vertex,std::allocator<sf::Vertex> >::_Ufill
PUBLIC	?_Orphan_range@?$vector@VVertex@sf@@V?$allocator@VVertex@sf@@@std@@@std@@AEBAXPEAVVertex@sf@@0@Z ; std::vector<sf::Vertex,std::allocator<sf::Vertex> >::_Orphan_range
PUBLIC	??0?$_Vector_val@U?$_Simple_types@VVertex@sf@@@std@@@std@@QEAA@XZ ; std::_Vector_val<std::_Simple_types<sf::Vertex> >::_Vector_val<std::_Simple_types<sf::Vertex> >
PUBLIC	?_Ufill@?$vector@EV?$allocator@E@std@@@std@@AEAAPEAEPEAE_KU_Value_init_tag@2@@Z ; std::vector<unsigned char,std::allocator<unsigned char> >::_Ufill
PUBLIC	?_Buy_nonzero@?$vector@EV?$allocator@E@std@@@std@@AEAAX_K@Z ; std::vector<unsigned char,std::allocator<unsigned char> >::_Buy_nonzero
PUBLIC	??1?$_Tidy_guard@V?$vector@EV?$allocator@E@std@@@std@@@std@@QEAA@XZ ; std::_Tidy_guard<std::vector<unsigned char,std::allocator<unsigned char> > >::~_Tidy_guard<std::vector<unsigned char,std::allocator<unsigned char> > >
PUBLIC	??0?$_Vector_val@U?$_Simple_types@E@std@@@std@@QEAA@XZ ; std::_Vector_val<std::_Simple_types<unsigned char> >::_Vector_val<std::_Simple_types<unsigned char> >
PUBLIC	?time_since_epoch@?$time_point@Usteady_clock@chrono@std@@V?$duration@_JU?$ratio@$00$0DLJKMKAA@@std@@@23@@chrono@std@@QEBA?AV?$duration@_JU?$ratio@$00$0DLJKMKAA@@std@@@23@XZ ; std::chrono::time_point<std::chrono::steady_clock,std::chrono::duration<__int64,std::ratio<1,1000000000> > >::time_since_epoch
PUBLIC	?call@?$compute_distance@$01M$0A@$0A@@detail@glm@@SAMAEBU?$vec@$01M$0A@@3@0@Z ; glm::detail::compute_distance<2,float,0,0>::call
PUBLIC	??_GRenderWindow@sf@@UEAAPEAXI@Z		; sf::RenderWindow::`scalar deleting destructor'
PUBLIC	?__autoclassinit2@World@@QEAAX_K@Z		; World::__autoclassinit2
PUBLIC	??$_Destroy_range@V?$allocator@VChunk@@@std@@@std@@YAXPEAVChunk@@QEAV1@AEAV?$allocator@VChunk@@@0@@Z ; std::_Destroy_range<std::allocator<Chunk> >
PUBLIC	??$_Destroy_range@V?$allocator@V?$vector@MV?$allocator@M@std@@@std@@@std@@@std@@YAXPEAV?$vector@MV?$allocator@M@std@@@0@QEAV10@AEAV?$allocator@V?$vector@MV?$allocator@M@std@@@std@@@0@@Z ; std::_Destroy_range<std::allocator<std::vector<float,std::allocator<float> > > >
PUBLIC	??$_Destroy_range@V?$allocator@VVertex@sf@@@std@@@std@@YAXPEAVVertex@sf@@QEAV12@AEAV?$allocator@VVertex@sf@@@0@@Z ; std::_Destroy_range<std::allocator<sf::Vertex> >
PUBLIC	??$_Destroy_range@V?$allocator@E@std@@@std@@YAXPEAEQEAEAEAV?$allocator@E@0@@Z ; std::_Destroy_range<std::allocator<unsigned char> >
PUBLIC	??$_Reallocate_for@V<lambda_1>@?1??assign@?$basic_string@DU?$char_traits@D@std@@V?$allocator@D@2@@std@@QEAAAEAV34@QEBD_K@Z@PEBD@?$basic_string@DU?$char_traits@D@std@@V?$allocator@D@2@@std@@AEAAAEAV01@_KV<lambda_1>@?1??assign@01@QEAAAEAV01@QEBD0@Z@PEBD@Z ; std::basic_string<char,std::char_traits<char>,std::allocator<char> >::_Reallocate_for<`std::basic_string<char,std::char_traits<char>,std::allocator<char> >::assign'::`2'::<lambda_1>,char const *>
PUBLIC	??$exchange@PEAVWorld@@PEAV1@@std@@YAPEAVWorld@@AEAPEAV1@$$QEAPEAV1@@Z ; std::exchange<World *,World *>
PUBLIC	??$exchange@PEAVWorld@@AEAPEAV1@@std@@YAPEAVWorld@@AEAPEAV1@0@Z ; std::exchange<World *,World * &>
PUBLIC	??$exchange@PEAVRenderWindow@sf@@PEAV12@@std@@YAPEAVRenderWindow@sf@@AEAPEAV12@$$QEAPEAV12@@Z ; std::exchange<sf::RenderWindow *,sf::RenderWindow *>
PUBLIC	??$exchange@PEAVRenderWindow@sf@@AEAPEAV12@@std@@YAPEAVRenderWindow@sf@@AEAPEAV12@0@Z ; std::exchange<sf::RenderWindow *,sf::RenderWindow * &>
PUBLIC	??$?0$$V@?$_Compressed_pair@V?$allocator@VVertex@sf@@@std@@V?$_Vector_val@U?$_Simple_types@VVertex@sf@@@std@@@2@$00@std@@QEAA@U_Zero_then_variadic_args_t@1@@Z ; std::_Compressed_pair<std::allocator<sf::Vertex>,std::_Vector_val<std::_Simple_types<sf::Vertex> >,1>::_Compressed_pair<std::allocator<sf::Vertex>,std::_Vector_val<std::_Simple_types<sf::Vertex> >,1><>
PUBLIC	??$_Resize@U_Value_init_tag@std@@@?$vector@VVertex@sf@@V?$allocator@VVertex@sf@@@std@@@std@@AEAAX_KAEBU_Value_init_tag@1@@Z ; std::vector<sf::Vertex,std::allocator<sf::Vertex> >::_Resize<std::_Value_init_tag>
PUBLIC	??$_Unfancy_maybe_null@VVertex@sf@@@std@@YAPEAVVertex@sf@@PEAV12@@Z ; std::_Unfancy_maybe_null<sf::Vertex>
PUBLIC	??$_Construct_n_copies_of_ty@U_Value_init_tag@std@@@?$vector@EV?$allocator@E@std@@@std@@AEAAX_KAEBU_Value_init_tag@1@@Z ; std::vector<unsigned char,std::allocator<unsigned char> >::_Construct_n_copies_of_ty<std::_Value_init_tag>
PUBLIC	??$?0AEBV?$allocator@E@std@@$$V@?$_Compressed_pair@V?$allocator@E@std@@V?$_Vector_val@U?$_Simple_types@E@std@@@2@$00@std@@QEAA@U_One_then_variadic_args_t@1@AEBV?$allocator@E@1@@Z ; std::_Compressed_pair<std::allocator<unsigned char>,std::_Vector_val<std::_Simple_types<unsigned char> >,1>::_Compressed_pair<std::allocator<unsigned char>,std::_Vector_val<std::_Simple_types<unsigned char> >,1><std::allocator<unsigned char> const &>
PUBLIC	??$_Unfancy_maybe_null@E@std@@YAPEAEPEAE@Z	; std::_Unfancy_maybe_null<unsigned char>
PUBLIC	??$forward@U?$default_delete@VWorld@@@std@@@std@@YA$$QEAU?$default_delete@VWorld@@@0@AEAU10@@Z ; std::forward<std::default_delete<World> >
PUBLIC	??$addressof@V?$unique_ptr@VWorld@@U?$default_delete@VWorld@@@std@@@std@@@std@@YAPEAV?$unique_ptr@VWorld@@U?$default_delete@VWorld@@@std@@@0@AEAV10@@Z ; std::addressof<std::unique_ptr<World,std::default_delete<World> > >
PUBLIC	??$forward@U?$default_delete@VRenderWindow@sf@@@std@@@std@@YA$$QEAU?$default_delete@VRenderWindow@sf@@@0@AEAU10@@Z ; std::forward<std::default_delete<sf::RenderWindow> >
PUBLIC	??$addressof@V?$unique_ptr@VRenderWindow@sf@@U?$default_delete@VRenderWindow@sf@@@std@@@std@@@std@@YAPEAV?$unique_ptr@VRenderWindow@sf@@U?$default_delete@VRenderWindow@sf@@@std@@@0@AEAV10@@Z ; std::addressof<std::unique_ptr<sf::RenderWindow,std::default_delete<sf::RenderWindow> > >
PUBLIC	??$accumulate@V?$_Array_iterator@H$05@std@@H@std@@YAHV?$_Array_iterator@H$05@0@0H@Z ; std::accumulate<std::_Array_iterator<int,6>,int>
PUBLIC	??$make_unique@VRenderWindow@sf@@VVideoMode@2@AEAY08$$CBD$0A@@std@@YA?AV?$unique_ptr@VRenderWindow@sf@@U?$default_delete@VRenderWindow@sf@@@std@@@0@$$QEAVVideoMode@sf@@AEAY08$$CBD@Z ; std::make_unique<sf::RenderWindow,sf::VideoMode,char const (&)[9],0>
PUBLIC	??$?GM$0A@@glm@@YA?AU?$vec@$01M$0A@@0@AEBU10@@Z	; glm::operator-<float,0>
PUBLIC	??$distance@$01M$0A@@glm@@YAMAEBU?$vec@$01M$0A@@0@0@Z ; glm::distance<2,float,0>
PUBLIC	??$?XM@?$vec@$01M$0A@@glm@@QEAAAEAU01@M@Z	; glm::vec<2,float,0>::operator*=<float>
PUBLIC	??$make_unique@VWorld@@$$V$0A@@std@@YA?AV?$unique_ptr@VWorld@@U?$default_delete@VWorld@@@std@@@0@XZ ; std::make_unique<World,0>
PUBLIC	??$?GUsteady_clock@chrono@std@@V?$duration@_JU?$ratio@$00$0DLJKMKAA@@std@@@12@V312@@chrono@std@@YA?AV?$duration@_JU?$ratio@$00$0DLJKMKAA@@std@@@01@AEBV?$time_point@Usteady_clock@chrono@std@@V?$duration@_JU?$ratio@$00$0DLJKMKAA@@std@@@23@@01@0@Z ; std::chrono::operator-<std::chrono::steady_clock,std::chrono::duration<__int64,std::ratio<1,1000000000> >,std::chrono::duration<__int64,std::ratio<1,1000000000> > >
PUBLIC	??$min@M@std@@YAAEBMAEBM0@Z			; std::min<float>
PUBLIC	??$make_unique@VTexture@sf@@$$V$0A@@std@@YA?AV?$unique_ptr@VTexture@sf@@U?$default_delete@VTexture@sf@@@std@@@0@XZ ; std::make_unique<sf::Texture,0>
PUBLIC	??$?0U?$default_delete@VRenderWindow@sf@@@std@@$0A@@?$unique_ptr@VRenderWindow@sf@@U?$default_delete@VRenderWindow@sf@@@std@@@std@@QEAA@XZ ; std::unique_ptr<sf::RenderWindow,std::default_delete<sf::RenderWindow> >::unique_ptr<sf::RenderWindow,std::default_delete<sf::RenderWindow> ><std::default_delete<sf::RenderWindow>,0>
PUBLIC	??$?0U?$default_delete@VWorld@@@std@@$0A@@?$unique_ptr@VWorld@@U?$default_delete@VWorld@@@std@@@std@@QEAA@XZ ; std::unique_ptr<World,std::default_delete<World> >::unique_ptr<World,std::default_delete<World> ><std::default_delete<World>,0>
PUBLIC	??$?0_JX@?$duration@_JU?$ratio@$00$0DLJKMKAA@@std@@@chrono@std@@QEAA@AEB_J@Z ; std::chrono::duration<__int64,std::ratio<1,1000000000> >::duration<__int64,std::ratio<1,1000000000> ><__int64,void>
PUBLIC	??0?$Vector2@M@sf@@QEAA@MM@Z			; sf::Vector2<float>::Vector2<float>
PUBLIC	?_Get_first@?$_Compressed_pair@V?$allocator@VChunk@@@std@@V?$_Vector_val@U?$_Simple_types@VChunk@@@std@@@2@$00@std@@QEAAAEAV?$allocator@VChunk@@@2@XZ ; std::_Compressed_pair<std::allocator<Chunk>,std::_Vector_val<std::_Simple_types<Chunk> >,1>::_Get_first
PUBLIC	?_Get_first@?$_Compressed_pair@V?$allocator@V?$vector@MV?$allocator@M@std@@@std@@@std@@V?$_Vector_val@U?$_Simple_types@V?$vector@MV?$allocator@M@std@@@std@@@std@@@2@$00@std@@QEAAAEAV?$allocator@V?$vector@MV?$allocator@M@std@@@std@@@2@XZ ; std::_Compressed_pair<std::allocator<std::vector<float,std::allocator<float> > >,std::_Vector_val<std::_Simple_types<std::vector<float,std::allocator<float> > > >,1>::_Get_first
PUBLIC	?deallocate@?$allocator@VChunk@@@std@@QEAAXQEAVChunk@@_K@Z ; std::allocator<Chunk>::deallocate
PUBLIC	?_Destroy@?$vector@VChunk@@V?$allocator@VChunk@@@std@@@std@@AEAAXPEAVChunk@@0@Z ; std::vector<Chunk,std::allocator<Chunk> >::_Destroy
PUBLIC	?_Getal@?$vector@VChunk@@V?$allocator@VChunk@@@std@@@std@@AEAAAEAV?$allocator@VChunk@@@2@XZ ; std::vector<Chunk,std::allocator<Chunk> >::_Getal
PUBLIC	?deallocate@?$allocator@V?$vector@MV?$allocator@M@std@@@std@@@std@@QEAAXQEAV?$vector@MV?$allocator@M@std@@@2@_K@Z ; std::allocator<std::vector<float,std::allocator<float> > >::deallocate
PUBLIC	?_Destroy@?$vector@V?$vector@MV?$allocator@M@std@@@std@@V?$allocator@V?$vector@MV?$allocator@M@std@@@std@@@2@@std@@AEAAXPEAV?$vector@MV?$allocator@M@std@@@2@0@Z ; std::vector<std::vector<float,std::allocator<float> >,std::allocator<std::vector<float,std::allocator<float> > > >::_Destroy
PUBLIC	?_Getal@?$vector@V?$vector@MV?$allocator@M@std@@@std@@V?$allocator@V?$vector@MV?$allocator@M@std@@@std@@@2@@std@@AEAAAEAV?$allocator@V?$vector@MV?$allocator@M@std@@@std@@@2@XZ ; std::vector<std::vector<float,std::allocator<float> >,std::allocator<std::vector<float,std::allocator<float> > > >::_Getal
PUBLIC	?_Get_first@?$_Compressed_pair@V?$allocator@VVertex@sf@@@std@@V?$_Vector_val@U?$_Simple_types@VVertex@sf@@@std@@@2@$00@std@@QEAAAEAV?$allocator@VVertex@sf@@@2@XZ ; std::_Compressed_pair<std::allocator<sf::Vertex>,std::_Vector_val<std::_Simple_types<sf::Vertex> >,1>::_Get_first
PUBLIC	?_Get_first@?$_Compressed_pair@V?$allocator@E@std@@V?$_Vector_val@U?$_Simple_types@E@std@@@2@$00@std@@QEAAAEAV?$allocator@E@2@XZ ; std::_Compressed_pair<std::allocator<unsigned char>,std::_Vector_val<std::_Simple_types<unsigned char> >,1>::_Get_first
PUBLIC	?_Tidy@?$vector@VChunk@@V?$allocator@VChunk@@@std@@@std@@AEAAXXZ ; std::vector<Chunk,std::allocator<Chunk> >::_Tidy
PUBLIC	?_Tidy@?$vector@V?$vector@MV?$allocator@M@std@@@std@@V?$allocator@V?$vector@MV?$allocator@M@std@@@std@@@2@@std@@AEAAXXZ ; std::vector<std::vector<float,std::allocator<float> >,std::allocator<std::vector<float,std::allocator<float> > > >::_Tidy
PUBLIC	?deallocate@?$allocator@E@std@@QEAAXQEAE_K@Z	; std::allocator<unsigned char>::deallocate
PUBLIC	?deallocate@?$allocator@VVertex@sf@@@std@@QEAAXQEAVVertex@sf@@_K@Z ; std::allocator<sf::Vertex>::deallocate
PUBLIC	?_Destroy@?$vector@VVertex@sf@@V?$allocator@VVertex@sf@@@std@@@std@@AEAAXPEAVVertex@sf@@0@Z ; std::vector<sf::Vertex,std::allocator<sf::Vertex> >::_Destroy
PUBLIC	?_Getal@?$vector@VVertex@sf@@V?$allocator@VVertex@sf@@@std@@@std@@AEAAAEAV?$allocator@VVertex@sf@@@2@XZ ; std::vector<sf::Vertex,std::allocator<sf::Vertex> >::_Getal
PUBLIC	?_Destroy@?$vector@EV?$allocator@E@std@@@std@@AEAAXPEAE0@Z ; std::vector<unsigned char,std::allocator<unsigned char> >::_Destroy
PUBLIC	?_Getal@?$vector@EV?$allocator@E@std@@@std@@AEAAAEAV?$allocator@E@2@XZ ; std::vector<unsigned char,std::allocator<unsigned char> >::_Getal
PUBLIC	??1?$vector@VChunk@@V?$allocator@VChunk@@@std@@@std@@QEAA@XZ ; std::vector<Chunk,std::allocator<Chunk> >::~vector<Chunk,std::allocator<Chunk> >
PUBLIC	??0?$_Array_const_iterator@H$05@std@@QEAA@PEBH_K@Z ; std::_Array_const_iterator<int,6>::_Array_const_iterator<int,6>
PUBLIC	??1?$vector@V?$vector@MV?$allocator@M@std@@@std@@V?$allocator@V?$vector@MV?$allocator@M@std@@@std@@@2@@std@@QEAA@XZ ; std::vector<std::vector<float,std::allocator<float> >,std::allocator<std::vector<float,std::allocator<float> > > >::~vector<std::vector<float,std::allocator<float> >,std::allocator<std::vector<float,std::allocator<float> > > >
PUBLIC	??1ColonyController@@QEAA@XZ			; ColonyController::~ColonyController
PUBLIC	??1?$array@VColonyController@@$04@std@@QEAA@XZ	; std::array<ColonyController,5>::~array<ColonyController,5>
PUBLIC	??1?$ChunkArray@$0DOI@@@QEAA@XZ			; ChunkArray<1000>::~ChunkArray<1000>
PUBLIC	??1World@@QEAA@XZ				; World::~World
PUBLIC	??_GWorld@@QEAAPEAXI@Z				; World::`scalar deleting destructor'
PUBLIC	??_GTexture@sf@@QEAAPEAXI@Z			; sf::Texture::`scalar deleting destructor'
PUBLIC	??R<lambda_1>@?1??assign@?$basic_string@DU?$char_traits@D@std@@V?$allocator@D@2@@std@@QEAAAEAV23@QEBD_K@Z@QEBAXQEAD10@Z ; `std::basic_string<char,std::char_traits<char>,std::allocator<char> >::assign'::`2'::<lambda_1>::operator()
PUBLIC	?assign@?$basic_string@DU?$char_traits@D@std@@V?$allocator@D@2@@std@@QEAAAEAV12@QEBD_K@Z ; std::basic_string<char,std::char_traits<char>,std::allocator<char> >::assign
PUBLIC	?assign@?$basic_string@DU?$char_traits@D@std@@V?$allocator@D@2@@std@@QEAAAEAV12@QEBD@Z ; std::basic_string<char,std::char_traits<char>,std::allocator<char> >::assign
PUBLIC	?_Tidy@?$vector@VVertex@sf@@V?$allocator@VVertex@sf@@@std@@@std@@AEAAXXZ ; std::vector<sf::Vertex,std::allocator<sf::Vertex> >::_Tidy
PUBLIC	?_Tidy@?$vector@EV?$allocator@E@std@@@std@@AEAAXXZ ; std::vector<unsigned char,std::allocator<unsigned char> >::_Tidy
PUBLIC	??A?$array@VEntity@@$0BIGKA@@std@@QEAAAEAVEntity@@_K@Z ; std::array<Entity,100000>::operator[]
PUBLIC	??0?$_Array_iterator@H$05@std@@QEAA@PEAH_K@Z	; std::_Array_iterator<int,6>::_Array_iterator<int,6>
PUBLIC	??E?$_Array_const_iterator@H$05@std@@QEAAAEAV01@XZ ; std::_Array_const_iterator<int,6>::operator++
PUBLIC	??R?$default_delete@VWorld@@@std@@QEBAXPEAVWorld@@@Z ; std::default_delete<World>::operator()
PUBLIC	?release@?$unique_ptr@VWorld@@U?$default_delete@VWorld@@@std@@@std@@QEAAPEAVWorld@@XZ ; std::unique_ptr<World,std::default_delete<World> >::release
PUBLIC	?reset@?$unique_ptr@VWorld@@U?$default_delete@VWorld@@@std@@@std@@QEAAXPEAVWorld@@@Z ; std::unique_ptr<World,std::default_delete<World> >::reset
PUBLIC	?_Get_first@?$_Compressed_pair@U?$default_delete@VWorld@@@std@@PEAVWorld@@$00@std@@QEAAAEAU?$default_delete@VWorld@@@2@XZ ; std::_Compressed_pair<std::default_delete<World>,World *,1>::_Get_first
PUBLIC	??R?$default_delete@VRenderWindow@sf@@@std@@QEBAXPEAVRenderWindow@sf@@@Z ; std::default_delete<sf::RenderWindow>::operator()
PUBLIC	?release@?$unique_ptr@VRenderWindow@sf@@U?$default_delete@VRenderWindow@sf@@@std@@@std@@QEAAPEAVRenderWindow@sf@@XZ ; std::unique_ptr<sf::RenderWindow,std::default_delete<sf::RenderWindow> >::release
PUBLIC	?reset@?$unique_ptr@VRenderWindow@sf@@U?$default_delete@VRenderWindow@sf@@@std@@@std@@QEAAXPEAVRenderWindow@sf@@@Z ; std::unique_ptr<sf::RenderWindow,std::default_delete<sf::RenderWindow> >::reset
PUBLIC	?_Get_first@?$_Compressed_pair@U?$default_delete@VRenderWindow@sf@@@std@@PEAVRenderWindow@sf@@$00@std@@QEAAAEAU?$default_delete@VRenderWindow@sf@@@2@XZ ; std::_Compressed_pair<std::default_delete<sf::RenderWindow>,sf::RenderWindow *,1>::_Get_first
PUBLIC	??R?$default_delete@VTexture@sf@@@std@@QEBAXPEAVTexture@sf@@@Z ; std::default_delete<sf::Texture>::operator()
PUBLIC	?_Get_first@?$_Compressed_pair@U?$default_delete@VTexture@sf@@@std@@PEAVTexture@sf@@$00@std@@QEAAAEAU?$default_delete@VTexture@sf@@@2@XZ ; std::_Compressed_pair<std::default_delete<sf::Texture>,sf::Texture *,1>::_Get_first
PUBLIC	?zero@?$duration_values@_J@chrono@std@@SA_JXZ	; std::chrono::duration_values<__int64>::zero
PUBLIC	??0?$basic_string@DU?$char_traits@D@std@@V?$allocator@D@2@@std@@QEAA@QEBD@Z ; std::basic_string<char,std::char_traits<char>,std::allocator<char> >::basic_string<char,std::char_traits<char>,std::allocator<char> >
PUBLIC	??0?$allocator@E@std@@QEAA@XZ			; std::allocator<unsigned char>::allocator<unsigned char>
PUBLIC	??0?$vector@VVertex@sf@@V?$allocator@VVertex@sf@@@std@@@std@@QEAA@XZ ; std::vector<sf::Vertex,std::allocator<sf::Vertex> >::vector<sf::Vertex,std::allocator<sf::Vertex> >
PUBLIC	??1?$vector@VVertex@sf@@V?$allocator@VVertex@sf@@@std@@@std@@QEAA@XZ ; std::vector<sf::Vertex,std::allocator<sf::Vertex> >::~vector<sf::Vertex,std::allocator<sf::Vertex> >
PUBLIC	?resize@?$vector@VVertex@sf@@V?$allocator@VVertex@sf@@@std@@@std@@QEAAX_K@Z ; std::vector<sf::Vertex,std::allocator<sf::Vertex> >::resize
PUBLIC	?data@?$vector@VVertex@sf@@V?$allocator@VVertex@sf@@@std@@@std@@QEAAPEAVVertex@sf@@XZ ; std::vector<sf::Vertex,std::allocator<sf::Vertex> >::data
PUBLIC	?size@?$vector@VVertex@sf@@V?$allocator@VVertex@sf@@@std@@@std@@QEBA_KXZ ; std::vector<sf::Vertex,std::allocator<sf::Vertex> >::size
PUBLIC	??A?$vector@VVertex@sf@@V?$allocator@VVertex@sf@@@std@@@std@@QEAAAEAVVertex@sf@@_K@Z ; std::vector<sf::Vertex,std::allocator<sf::Vertex> >::operator[]
PUBLIC	??0?$vector@EV?$allocator@E@std@@@std@@QEAA@_KAEBV?$allocator@E@1@@Z ; std::vector<unsigned char,std::allocator<unsigned char> >::vector<unsigned char,std::allocator<unsigned char> >
PUBLIC	??1?$vector@EV?$allocator@E@std@@@std@@QEAA@XZ	; std::vector<unsigned char,std::allocator<unsigned char> >::~vector<unsigned char,std::allocator<unsigned char> >
PUBLIC	?data@?$vector@EV?$allocator@E@std@@@std@@QEAAPEAEXZ ; std::vector<unsigned char,std::allocator<unsigned char> >::data
PUBLIC	??A?$vector@EV?$allocator@E@std@@@std@@QEAAAEAE_K@Z ; std::vector<unsigned char,std::allocator<unsigned char> >::operator[]
PUBLIC	?count@?$duration@_JU?$ratio@$00$0DLJKMKAA@@std@@@chrono@std@@QEBA_JXZ ; std::chrono::duration<__int64,std::ratio<1,1000000000> >::count
PUBLIC	?zero@?$duration@_JU?$ratio@$00$0DLJKMKAA@@std@@@chrono@std@@SA?AV123@XZ ; std::chrono::duration<__int64,std::ratio<1,1000000000> >::zero
PUBLIC	??0?$time_point@Usteady_clock@chrono@std@@V?$duration@_JU?$ratio@$00$0DLJKMKAA@@std@@@23@@chrono@std@@QEAA@AEBV?$duration@_JU?$ratio@$00$0DLJKMKAA@@std@@@12@@Z ; std::chrono::time_point<std::chrono::steady_clock,std::chrono::duration<__int64,std::ratio<1,1000000000> > >::time_point<std::chrono::steady_clock,std::chrono::duration<__int64,std::ratio<1,1000000000> > >
PUBLIC	?size@?$vector@MV?$allocator@M@std@@@std@@QEBA_KXZ ; std::vector<float,std::allocator<float> >::size
PUBLIC	?back@?$vector@MV?$allocator@M@std@@@std@@QEAAAEAMXZ ; std::vector<float,std::allocator<float> >::back
PUBLIC	?GetParticle@?$SwapList@VEntity@@$0BIGKA@@@QEAAAEAVEntity@@H@Z ; SwapList<Entity,100000>::GetParticle
PUBLIC	?size@?$array@VColonyController@@$04@std@@QEBA_KXZ ; std::array<ColonyController,5>::size
PUBLIC	??A?$array@VColonyController@@$04@std@@QEAAAEAVColonyController@@_K@Z ; std::array<ColonyController,5>::operator[]
PUBLIC	?begin@?$array@H$05@std@@QEAA?AV?$_Array_iterator@H$05@2@XZ ; std::array<int,6>::begin
PUBLIC	?end@?$array@H$05@std@@QEAA?AV?$_Array_iterator@H$05@2@XZ ; std::array<int,6>::end
PUBLIC	??A?$array@H$05@std@@QEAAAEAH_K@Z		; std::array<int,6>::operator[]
PUBLIC	??E?$_Array_iterator@H$05@std@@QEAAAEAV01@XZ	; std::_Array_iterator<int,6>::operator++
PUBLIC	??A?$vector@V?$vector@MV?$allocator@M@std@@@std@@V?$allocator@V?$vector@MV?$allocator@M@std@@@std@@@2@@std@@QEAAAEAV?$vector@MV?$allocator@M@std@@@1@_K@Z ; std::vector<std::vector<float,std::allocator<float> >,std::allocator<std::vector<float,std::allocator<float> > > >::operator[]
PUBLIC	??4?$unique_ptr@VWorld@@U?$default_delete@VWorld@@@std@@@std@@QEAAAEAV01@$$QEAV01@@Z ; std::unique_ptr<World,std::default_delete<World> >::operator=
PUBLIC	??1?$unique_ptr@VWorld@@U?$default_delete@VWorld@@@std@@@std@@QEAA@XZ ; std::unique_ptr<World,std::default_delete<World> >::~unique_ptr<World,std::default_delete<World> >
PUBLIC	??C?$unique_ptr@VWorld@@U?$default_delete@VWorld@@@std@@@std@@QEBAPEAVWorld@@XZ ; std::unique_ptr<World,std::default_delete<World> >::operator->
PUBLIC	??4?$unique_ptr@VRenderWindow@sf@@U?$default_delete@VRenderWindow@sf@@@std@@@std@@QEAAAEAV01@$$QEAV01@@Z ; std::unique_ptr<sf::RenderWindow,std::default_delete<sf::RenderWindow> >::operator=
PUBLIC	??1?$unique_ptr@VRenderWindow@sf@@U?$default_delete@VRenderWindow@sf@@@std@@@std@@QEAA@XZ ; std::unique_ptr<sf::RenderWindow,std::default_delete<sf::RenderWindow> >::~unique_ptr<sf::RenderWindow,std::default_delete<sf::RenderWindow> >
PUBLIC	??C?$unique_ptr@VRenderWindow@sf@@U?$default_delete@VRenderWindow@sf@@@std@@@std@@QEBAPEAVRenderWindow@sf@@XZ ; std::unique_ptr<sf::RenderWindow,std::default_delete<sf::RenderWindow> >::operator->
PUBLIC	?get@?$unique_ptr@VRenderWindow@sf@@U?$default_delete@VRenderWindow@sf@@@std@@@std@@QEBAPEAVRenderWindow@sf@@XZ ; std::unique_ptr<sf::RenderWindow,std::default_delete<sf::RenderWindow> >::get
PUBLIC	??1?$unique_ptr@VTexture@sf@@U?$default_delete@VTexture@sf@@@std@@@std@@QEAA@XZ ; std::unique_ptr<sf::Texture,std::default_delete<sf::Texture> >::~unique_ptr<sf::Texture,std::default_delete<sf::Texture> >
PUBLIC	??C?$unique_ptr@VTexture@sf@@U?$default_delete@VTexture@sf@@@std@@@std@@QEBAPEAVTexture@sf@@XZ ; std::unique_ptr<sf::Texture,std::default_delete<sf::Texture> >::operator->
PUBLIC	?get@?$unique_ptr@VTexture@sf@@U?$default_delete@VTexture@sf@@@std@@@std@@QEBAPEAVTexture@sf@@XZ ; std::unique_ptr<sf::Texture,std::default_delete<sf::Texture> >::get
PUBLIC	main
PUBLIC	?PollInput@@YAXXZ				; PollInput
PUBLIC	?Update@@YAXXZ					; Update
PUBLIC	?Render@@YAXXZ					; Render
PUBLIC	?RenderGraph@@YAXAEAV?$vector@V?$vector@MV?$allocator@M@std@@@std@@V?$allocator@V?$vector@MV?$allocator@M@std@@@std@@@2@@std@@@Z ; RenderGraph
PUBLIC	?__autoclassinit2@?$vector@VVertex@sf@@V?$allocator@VVertex@sf@@@std@@@std@@QEAAX_K@Z ; std::vector<sf::Vertex,std::allocator<sf::Vertex> >::__autoclassinit2
PUBLIC	?__autoclassinit2@?$vector@MV?$allocator@M@std@@@std@@QEAAX_K@Z ; std::vector<float,std::allocator<float> >::__autoclassinit2
PUBLIC	?__autoclassinit2@?$vector@EV?$allocator@E@std@@@std@@QEAAX_K@Z ; std::vector<unsigned char,std::allocator<unsigned char> >::__autoclassinit2
PUBLIC	?__autoclassinit2@?$unique_ptr@VTexture@sf@@U?$default_delete@VTexture@sf@@@std@@@std@@QEAAX_K@Z ; std::unique_ptr<sf::Texture,std::default_delete<sf::Texture> >::__autoclassinit2
PUBLIC	?__autoclassinit2@?$unique_ptr@VRenderWindow@sf@@U?$default_delete@VRenderWindow@sf@@@std@@@std@@QEAAX_K@Z ; std::unique_ptr<sf::RenderWindow,std::default_delete<sf::RenderWindow> >::__autoclassinit2
PUBLIC	?__autoclassinit2@?$unique_ptr@VWorld@@U?$default_delete@VWorld@@@std@@@std@@QEAAX_K@Z ; std::unique_ptr<World,std::default_delete<World> >::__autoclassinit2
PUBLIC	??0?$time_point@Usteady_clock@chrono@std@@V?$duration@_JU?$ratio@$00$0DLJKMKAA@@std@@@23@@chrono@std@@QEAA@XZ ; std::chrono::time_point<std::chrono::steady_clock,std::chrono::duration<__int64,std::ratio<1,1000000000> > >::time_point<std::chrono::steady_clock,std::chrono::duration<__int64,std::ratio<1,1000000000> > >
PUBLIC	?GetStrength@PheremoneGrid@@QEAAAEAMMMH@Z	; PheremoneGrid::GetStrength
PUBLIC	?now@steady_clock@chrono@std@@SA?AV?$time_point@Usteady_clock@chrono@std@@V?$duration@_JU?$ratio@$00$0DLJKMKAA@@std@@@23@@23@XZ ; std::chrono::steady_clock::now
PUBLIC	??0ContextSettings@sf@@QEAA@IIIIII_N@Z		; sf::ContextSettings::ContextSettings
PUBLIC	??0locale@std@@QEAA@XZ				; std::locale::locale
PUBLIC	??$_Convert_size@_K@std@@YA_K_K@Z		; std::_Convert_size<unsigned __int64>
PUBLIC	?abs@@YAMM@Z					; abs
PUBLIC	fabsf
PUBLIC	?StartTime@@3V?$time_point@Usteady_clock@chrono@std@@V?$duration@_JU?$ratio@$00$0DLJKMKAA@@std@@@23@@chrono@std@@A ; StartTime
PUBLIC	?PheremoneMap@@3VRectangleShape@sf@@A		; PheremoneMap
PUBLIC	?tex_grid@@3V?$vector@MV?$allocator@M@std@@@std@@A ; tex_grid
PUBLIC	?window@@3V?$unique_ptr@VRenderWindow@sf@@U?$default_delete@VRenderWindow@sf@@@std@@@std@@A ; window
PUBLIC	?shape@@3VCircleShape@sf@@A			; shape
PUBLIC	?PheremoneTexture@@3V?$unique_ptr@VTexture@sf@@U?$default_delete@VTexture@sf@@@std@@@std@@A ; PheremoneTexture
PUBLIC	?GraphVertexBuffer@@3V?$vector@VVertex@sf@@V?$allocator@VVertex@sf@@@std@@@std@@A ; GraphVertexBuffer
PUBLIC	?DtCounter@@3V?$time_point@Usteady_clock@chrono@std@@V?$duration@_JU?$ratio@$00$0DLJKMKAA@@std@@@23@@chrono@std@@A ; DtCounter
PUBLIC	?world@@3V?$unique_ptr@VWorld@@U?$default_delete@VWorld@@@std@@@std@@A ; world
PUBLIC	?GraphArea@@3VRectangleShape@sf@@A		; GraphArea
PUBLIC	?ScreenSize@@3U?$vec@$01M$0A@@glm@@A		; ScreenSize
PUBLIC	?Pixels@@3V?$vector@EV?$allocator@E@std@@@std@@A ; Pixels
EXTRN	??_ERenderWindow@sf@@UEAAPEAXI@Z:PROC		; sf::RenderWindow::`vector deleting destructor'
?StartTime@@3V?$time_point@Usteady_clock@chrono@std@@V?$duration@_JU?$ratio@$00$0DLJKMKAA@@std@@@23@@chrono@std@@A DQ 01H DUP (?) ; StartTime
?PheremoneMap@@3VRectangleShape@sf@@A DB 0158H DUP (?)	; PheremoneMap
?tex_grid@@3V?$vector@MV?$allocator@M@std@@@std@@A DB 018H DUP (?) ; tex_grid
?window@@3V?$unique_ptr@VRenderWindow@sf@@U?$default_delete@VRenderWindow@sf@@@std@@@std@@A DQ 01H DUP (?) ; window
?shape@@3VCircleShape@sf@@A DB 0160H DUP (?)		; shape
?PheremoneTexture@@3V?$unique_ptr@VTexture@sf@@U?$default_delete@VTexture@sf@@@std@@@std@@A DQ 01H DUP (?) ; PheremoneTexture
?GraphVertexBuffer@@3V?$vector@VVertex@sf@@V?$allocator@VVertex@sf@@@std@@@std@@A DB 018H DUP (?) ; GraphVertexBuffer
?DtCounter@@3V?$time_point@Usteady_clock@chrono@std@@V?$duration@_JU?$ratio@$00$0DLJKMKAA@@std@@@23@@chrono@std@@A DQ 01H DUP (?) ; DtCounter
?world@@3V?$unique_ptr@VWorld@@U?$default_delete@VWorld@@@std@@@std@@A DQ 01H DUP (?) ; world
?GraphArea@@3VRectangleShape@sf@@A DB 0158H DUP (?)	; GraphArea
?Pixels@@3V?$vector@EV?$allocator@E@std@@@std@@A DB 018H DUP (?) ; Pixels
_BSS	ENDS
;	COMDAT pdata
pdata	SEGMENT
$pdata$??$_Emplace_back@$$V@?$_Uninitialized_backout_al@V?$allocator@VVertex@sf@@@std@@@std@@QEAAXXZ DD imagerel $LN11@Emplace_ba
	DD	imagerel $LN11@Emplace_ba+30
	DD	imagerel $unwind$??$_Emplace_back@$$V@?$_Uninitialized_backout_al@V?$allocator@VVertex@sf@@@std@@@std@@QEAAXXZ
pdata	ENDS
;	COMDAT pdata
pdata	SEGMENT
$pdata$??$_Zero_range@PEAE@std@@YAPEAEQEAE0@Z DD imagerel $LN4@Zero_range
	DD	imagerel $LN4@Zero_range+31
	DD	imagerel $unwind$??$_Zero_range@PEAE@std@@YAPEAEQEAE0@Z
pdata	ENDS
;	COMDAT pdata
pdata	SEGMENT
$pdata$?allocate@?$allocator@VVertex@sf@@@std@@QEAAPEAVVertex@sf@@_K@Z DD imagerel $LN31@allocate
	DD	imagerel $LN31@allocate+117
	DD	imagerel $unwind$?allocate@?$allocator@VVertex@sf@@@std@@QEAAPEAVVertex@sf@@_K@Z
pdata	ENDS
;	COMDAT pdata
pdata	SEGMENT
$pdata$?_Umove_if_noexcept@?$vector@VVertex@sf@@V?$allocator@VVertex@sf@@@std@@@std@@AEAAXPEAVVertex@sf@@00@Z DD imagerel $LN49@Umove_if_n
	DD	imagerel $LN49@Umove_if_n+76
	DD	imagerel $unwind$?_Umove_if_noexcept@?$vector@VVertex@sf@@V?$allocator@VVertex@sf@@@std@@@std@@AEAAXPEAVVertex@sf@@00@Z
pdata	ENDS
;	COMDAT pdata
pdata	SEGMENT
$pdata$?_Change_array@?$vector@VVertex@sf@@V?$allocator@VVertex@sf@@@std@@@std@@AEAAXQEAVVertex@sf@@_K1@Z DD imagerel $LN39@Change_arr
	DD	imagerel $LN39@Change_arr+182
	DD	imagerel $unwind$?_Change_array@?$vector@VVertex@sf@@V?$allocator@VVertex@sf@@@std@@@std@@AEAAXQEAVVertex@sf@@_K1@Z
pdata	ENDS
;	COMDAT pdata
pdata	SEGMENT
$pdata$?_Xlength@?$vector@VVertex@sf@@V?$allocator@VVertex@sf@@@std@@@std@@CAXXZ DD imagerel $LN4@Xlength
	DD	imagerel $LN4@Xlength+18
	DD	imagerel $unwind$?_Xlength@?$vector@VVertex@sf@@V?$allocator@VVertex@sf@@@std@@@std@@CAXXZ
pdata	ENDS
;	COMDAT pdata
pdata	SEGMENT
$pdata$??_G?$vector@MV?$allocator@M@std@@@std@@QEAAPEAXI@Z DD imagerel $LN46@scalar
	DD	imagerel $LN46@scalar+95
	DD	imagerel $unwind$??_G?$vector@MV?$allocator@M@std@@@std@@QEAAPEAXI@Z
pdata	ENDS
;	COMDAT pdata
pdata	SEGMENT
$pdata$??$_Uninitialized_value_construct_n@V?$allocator@VVertex@sf@@@std@@@std@@YAPEAVVertex@sf@@PEAV12@_KAEAV?$allocator@VVertex@sf@@@0@@Z DD imagerel $LN31@Uninitiali
	DD	imagerel $LN31@Uninitiali+54
	DD	imagerel $unwind$??$_Uninitialized_value_construct_n@V?$allocator@VVertex@sf@@@std@@@std@@YAPEAVVertex@sf@@PEAV12@_KAEAV?$allocator@VVertex@sf@@@0@@Z
pdata	ENDS
;	COMDAT pdata
pdata	SEGMENT
$pdata$??$_Uninitialized_value_construct_n@V?$allocator@E@std@@@std@@YAPEAEPEAE_KAEAV?$allocator@E@0@@Z DD imagerel $LN8@Uninitiali
	DD	imagerel $LN8@Uninitiali+35
	DD	imagerel $unwind$??$_Uninitialized_value_construct_n@V?$allocator@E@std@@@std@@YAPEAEPEAE_KAEAV?$allocator@E@0@@Z
pdata	ENDS
;	COMDAT pdata
pdata	SEGMENT
$pdata$??$destroy@V?$vector@MV?$allocator@M@std@@@std@@@?$_Default_allocator_traits@V?$allocator@V?$vector@MV?$allocator@M@std@@@std@@@std@@@std@@SAXAEAV?$allocator@V?$vector@MV?$allocator@M@std@@@std@@@1@QEAV?$vector@MV?$allocator@M@std@@@1@@Z DD imagerel $LN49@destroy
	DD	imagerel $LN49@destroy+92
	DD	imagerel $unwind$??$destroy@V?$vector@MV?$allocator@M@std@@@std@@@?$_Default_allocator_traits@V?$allocator@V?$vector@MV?$allocator@M@std@@@std@@@std@@@std@@SAXAEAV?$allocator@V?$vector@MV?$allocator@M@std@@@std@@@1@QEAV?$vector@MV?$allocator@M@std@@@1@@Z
pdata	ENDS
;	COMDAT pdata
pdata	SEGMENT
$pdata$??$_Resize_reallocate@U_Value_init_tag@std@@@?$vector@VVertex@sf@@V?$allocator@VVertex@sf@@@std@@@std@@AEAAX_KAEBU_Value_init_tag@1@@Z DD imagerel $LN187@Resize_rea
	DD	imagerel $LN187@Resize_rea+547
	DD	imagerel $unwind$??$_Resize_reallocate@U_Value_init_tag@std@@@?$vector@VVertex@sf@@V?$allocator@VVertex@sf@@@std@@@std@@AEAAX_KAEBU_Value_init_tag@1@@Z
pdata	ENDS
;	COMDAT pdata
pdata	SEGMENT
$pdata$?catch$0@?0???$_Resize_reallocate@U_Value_init_tag@std@@@?$vector@VVertex@sf@@V?$allocator@VVertex@sf@@@std@@@std@@AEAAX_KAEBU_Value_init_tag@1@@Z@4HA DD imagerel ?catch$0@?0???$_Resize_reallocate@U_Value_init_tag@std@@@?$vector@VVertex@sf@@V?$allocator@VVertex@sf@@@std@@@std@@AEAAX_KAEBU_Value_init_tag@1@@Z@4HA
	DD	imagerel ?catch$0@?0???$_Resize_reallocate@U_Value_init_tag@std@@@?$vector@VVertex@sf@@V?$allocator@VVertex@sf@@@std@@@std@@AEAAX_KAEBU_Value_init_tag@1@@Z@4HA+36
	DD	imagerel $unwind$?catch$0@?0???$_Resize_reallocate@U_Value_init_tag@std@@@?$vector@VVertex@sf@@V?$allocator@VVertex@sf@@@std@@@std@@AEAAX_KAEBU_Value_init_tag@1@@Z@4HA
pdata	ENDS
;	COMDAT pdata
pdata	SEGMENT
$pdata$?allocate@?$allocator@E@std@@QEAAPEAE_K@Z DD imagerel $LN29@allocate
	DD	imagerel $LN29@allocate+46
	DD	imagerel $unwind$?allocate@?$allocator@E@std@@QEAAPEAE_K@Z
pdata	ENDS
;	COMDAT pdata
pdata	SEGMENT
$pdata$?_Buy_raw@?$vector@EV?$allocator@E@std@@@std@@AEAAX_K@Z DD imagerel $LN36@Buy_raw
	DD	imagerel $LN36@Buy_raw+73
	DD	imagerel $unwind$?_Buy_raw@?$vector@EV?$allocator@E@std@@@std@@AEAAX_K@Z
pdata	ENDS
;	COMDAT pdata
pdata	SEGMENT
$pdata$?_Xlength@?$vector@EV?$allocator@E@std@@@std@@CAXXZ DD imagerel $LN4@Xlength
	DD	imagerel $LN4@Xlength+18
	DD	imagerel $unwind$?_Xlength@?$vector@EV?$allocator@E@std@@@std@@CAXXZ
pdata	ENDS
;	COMDAT pdata
pdata	SEGMENT
$pdata$?_Ufill@?$vector@VVertex@sf@@V?$allocator@VVertex@sf@@@std@@@std@@AEAAPEAVVertex@sf@@PEAV34@_KU_Value_init_tag@2@@Z DD imagerel $LN37@Ufill
	DD	imagerel $LN37@Ufill+54
	DD	imagerel $unwind$?_Ufill@?$vector@VVertex@sf@@V?$allocator@VVertex@sf@@@std@@@std@@AEAAPEAVVertex@sf@@PEAV34@_KU_Value_init_tag@2@@Z
pdata	ENDS
;	COMDAT pdata
pdata	SEGMENT
$pdata$?_Ufill@?$vector@EV?$allocator@E@std@@@std@@AEAAPEAEPEAE_KU_Value_init_tag@2@@Z DD imagerel $LN15@Ufill
	DD	imagerel $LN15@Ufill+38
	DD	imagerel $unwind$?_Ufill@?$vector@EV?$allocator@E@std@@@std@@AEAAPEAEPEAE_KU_Value_init_tag@2@@Z
pdata	ENDS
;	COMDAT pdata
pdata	SEGMENT
$pdata$?_Buy_nonzero@?$vector@EV?$allocator@E@std@@@std@@AEAAX_K@Z DD imagerel $LN52@Buy_nonzer
	DD	imagerel $LN52@Buy_nonzer+73
	DD	imagerel $unwind$?_Buy_nonzero@?$vector@EV?$allocator@E@std@@@std@@AEAAX_K@Z
pdata	ENDS
;	COMDAT pdata
pdata	SEGMENT
$pdata$??1?$_Tidy_guard@V?$vector@EV?$allocator@E@std@@@std@@@std@@QEAA@XZ DD imagerel $LN43@Tidy_guard
	DD	imagerel $LN43@Tidy_guard+93
	DD	imagerel $unwind$??1?$_Tidy_guard@V?$vector@EV?$allocator@E@std@@@std@@@std@@QEAA@XZ
pdata	ENDS
;	COMDAT pdata
pdata	SEGMENT
$pdata$??_GRenderWindow@sf@@UEAAPEAXI@Z DD imagerel $LN7@scalar
	DD	imagerel $LN7@scalar+53
	DD	imagerel $unwind$??_GRenderWindow@sf@@UEAAPEAXI@Z
pdata	ENDS
;	COMDAT pdata
pdata	SEGMENT
$pdata$??$_Destroy_range@V?$allocator@V?$vector@MV?$allocator@M@std@@@std@@@std@@@std@@YAXPEAV?$vector@MV?$allocator@M@std@@@0@QEAV10@AEAV?$allocator@V?$vector@MV?$allocator@M@std@@@std@@@0@@Z DD imagerel $LN64@Destroy_ra
	DD	imagerel $LN64@Destroy_ra+15
	DD	imagerel $unwind$??$_Destroy_range@V?$allocator@V?$vector@MV?$allocator@M@std@@@std@@@std@@@std@@YAXPEAV?$vector@MV?$allocator@M@std@@@0@QEAV10@AEAV?$allocator@V?$vector@MV?$allocator@M@std@@@std@@@0@@Z
pdata	ENDS
;	COMDAT pdata
pdata	SEGMENT
$pdata$0$??$_Destroy_range@V?$allocator@V?$vector@MV?$allocator@M@std@@@std@@@std@@@std@@YAXPEAV?$vector@MV?$allocator@M@std@@@0@QEAV10@AEAV?$allocator@V?$vector@MV?$allocator@M@std@@@std@@@0@@Z DD imagerel $LN64@Destroy_ra+15
	DD	imagerel $LN64@Destroy_ra+124
	DD	imagerel $chain$0$??$_Destroy_range@V?$allocator@V?$vector@MV?$allocator@M@std@@@std@@@std@@@std@@YAXPEAV?$vector@MV?$allocator@M@std@@@0@QEAV10@AEAV?$allocator@V?$vector@MV?$allocator@M@std@@@std@@@0@@Z
pdata	ENDS
;	COMDAT pdata
pdata	SEGMENT
$pdata$1$??$_Destroy_range@V?$allocator@V?$vector@MV?$allocator@M@std@@@std@@@std@@@std@@YAXPEAV?$vector@MV?$allocator@M@std@@@0@QEAV10@AEAV?$allocator@V?$vector@MV?$allocator@M@std@@@std@@@0@@Z DD imagerel $LN64@Destroy_ra+124
	DD	imagerel $LN64@Destroy_ra+125
	DD	imagerel $chain$1$??$_Destroy_range@V?$allocator@V?$vector@MV?$allocator@M@std@@@std@@@std@@@std@@YAXPEAV?$vector@MV?$allocator@M@std@@@0@QEAV10@AEAV?$allocator@V?$vector@MV?$allocator@M@std@@@std@@@0@@Z
pdata	ENDS
;	COMDAT pdata
pdata	SEGMENT
$pdata$2$??$_Destroy_range@V?$allocator@V?$vector@MV?$allocator@M@std@@@std@@@std@@@std@@YAXPEAV?$vector@MV?$allocator@M@std@@@0@QEAV10@AEAV?$allocator@V?$vector@MV?$allocator@M@std@@@std@@@0@@Z DD imagerel $LN64@Destroy_ra+125
	DD	imagerel $LN64@Destroy_ra+132
	DD	imagerel $chain$2$??$_Destroy_range@V?$allocator@V?$vector@MV?$allocator@M@std@@@std@@@std@@@std@@YAXPEAV?$vector@MV?$allocator@M@std@@@0@QEAV10@AEAV?$allocator@V?$vector@MV?$allocator@M@std@@@std@@@0@@Z
pdata	ENDS
;	COMDAT pdata
pdata	SEGMENT
$pdata$??$_Reallocate_for@V<lambda_1>@?1??assign@?$basic_string@DU?$char_traits@D@std@@V?$allocator@D@2@@std@@QEAAAEAV34@QEBD_K@Z@PEBD@?$basic_string@DU?$char_traits@D@std@@V?$allocator@D@2@@std@@AEAAAEAV01@_KV<lambda_1>@?1??assign@01@QEAAAEAV01@QEBD0@Z@PEBD@Z DD imagerel $LN117@Reallocate
	DD	imagerel $LN117@Reallocate+34
	DD	imagerel $unwind$??$_Reallocate_for@V<lambda_1>@?1??assign@?$basic_string@DU?$char_traits@D@std@@V?$allocator@D@2@@std@@QEAAAEAV34@QEBD_K@Z@PEBD@?$basic_string@DU?$char_traits@D@std@@V?$allocator@D@2@@std@@AEAAAEAV01@_KV<lambda_1>@?1??assign@01@QEAAAEAV01@QEBD0@Z@PEBD@Z
pdata	ENDS
;	COMDAT pdata
pdata	SEGMENT
$pdata$1$??$_Reallocate_for@V<lambda_1>@?1??assign@?$basic_string@DU?$char_traits@D@std@@V?$allocator@D@2@@std@@QEAAAEAV34@QEBD_K@Z@PEBD@?$basic_string@DU?$char_traits@D@std@@V?$allocator@D@2@@std@@AEAAAEAV01@_KV<lambda_1>@?1??assign@01@QEAAAEAV01@QEBD0@Z@PEBD@Z DD imagerel $LN117@Reallocate+34
	DD	imagerel $LN117@Reallocate+283
	DD	imagerel $chain$1$??$_Reallocate_for@V<lambda_1>@?1??assign@?$basic_string@DU?$char_traits@D@std@@V?$allocator@D@2@@std@@QEAAAEAV34@QEBD_K@Z@PEBD@?$basic_string@DU?$char_traits@D@std@@V?$allocator@D@2@@std@@AEAAAEAV01@_KV<lambda_1>@?1??assign@01@QEAAAEAV01@QEBD0@Z@PEBD@Z
pdata	ENDS
;	COMDAT pdata
pdata	SEGMENT
$pdata$3$??$_Reallocate_for@V<lambda_1>@?1??assign@?$basic_string@DU?$char_traits@D@std@@V?$allocator@D@2@@std@@QEAAAEAV34@QEBD_K@Z@PEBD@?$basic_string@DU?$char_traits@D@std@@V?$allocator@D@2@@std@@AEAAAEAV01@_KV<lambda_1>@?1??assign@01@QEAAAEAV01@QEBD0@Z@PEBD@Z DD imagerel $LN117@Reallocate+283
	DD	imagerel $LN117@Reallocate+290
	DD	imagerel $chain$3$??$_Reallocate_for@V<lambda_1>@?1??assign@?$basic_string@DU?$char_traits@D@std@@V?$allocator@D@2@@std@@QEAAAEAV34@QEBD_K@Z@PEBD@?$basic_string@DU?$char_traits@D@std@@V?$allocator@D@2@@std@@AEAAAEAV01@_KV<lambda_1>@?1??assign@01@QEAAAEAV01@QEBD0@Z@PEBD@Z
pdata	ENDS
;	COMDAT pdata
pdata	SEGMENT
$pdata$4$??$_Reallocate_for@V<lambda_1>@?1??assign@?$basic_string@DU?$char_traits@D@std@@V?$allocator@D@2@@std@@QEAAAEAV34@QEBD_K@Z@PEBD@?$basic_string@DU?$char_traits@D@std@@V?$allocator@D@2@@std@@AEAAAEAV01@_KV<lambda_1>@?1??assign@01@QEAAAEAV01@QEBD0@Z@PEBD@Z DD imagerel $LN117@Reallocate+290
	DD	imagerel $LN117@Reallocate+296
	DD	imagerel $chain$4$??$_Reallocate_for@V<lambda_1>@?1??assign@?$basic_string@DU?$char_traits@D@std@@V?$allocator@D@2@@std@@QEAAAEAV34@QEBD_K@Z@PEBD@?$basic_string@DU?$char_traits@D@std@@V?$allocator@D@2@@std@@AEAAAEAV01@_KV<lambda_1>@?1??assign@01@QEAAAEAV01@QEBD0@Z@PEBD@Z
pdata	ENDS
;	COMDAT pdata
pdata	SEGMENT
$pdata$??$_Resize@U_Value_init_tag@std@@@?$vector@VVertex@sf@@V?$allocator@VVertex@sf@@@std@@@std@@AEAAX_KAEBU_Value_init_tag@1@@Z DD imagerel $LN53@Resize
	DD	imagerel $LN53@Resize+197
	DD	imagerel $unwind$??$_Resize@U_Value_init_tag@std@@@?$vector@VVertex@sf@@V?$allocator@VVertex@sf@@@std@@@std@@AEAAX_KAEBU_Value_init_tag@1@@Z
pdata	ENDS
;	COMDAT pdata
pdata	SEGMENT
$pdata$??$_Construct_n_copies_of_ty@U_Value_init_tag@std@@@?$vector@EV?$allocator@E@std@@@std@@AEAAX_KAEBU_Value_init_tag@1@@Z DD imagerel $LN112@Construct_
	DD	imagerel $LN112@Construct_+23
	DD	imagerel $unwind$??$_Construct_n_copies_of_ty@U_Value_init_tag@std@@@?$vector@EV?$allocator@E@std@@@std@@AEAAX_KAEBU_Value_init_tag@1@@Z
pdata	ENDS
;	COMDAT pdata
pdata	SEGMENT
$pdata$0$??$_Construct_n_copies_of_ty@U_Value_init_tag@std@@@?$vector@EV?$allocator@E@std@@@std@@AEAAX_KAEBU_Value_init_tag@1@@Z DD imagerel $LN112@Construct_+23
	DD	imagerel $LN112@Construct_+87
	DD	imagerel $chain$0$??$_Construct_n_copies_of_ty@U_Value_init_tag@std@@@?$vector@EV?$allocator@E@std@@@std@@AEAAX_KAEBU_Value_init_tag@1@@Z
pdata	ENDS
;	COMDAT pdata
pdata	SEGMENT
$pdata$1$??$_Construct_n_copies_of_ty@U_Value_init_tag@std@@@?$vector@EV?$allocator@E@std@@@std@@AEAAX_KAEBU_Value_init_tag@1@@Z DD imagerel $LN112@Construct_+87
	DD	imagerel $LN112@Construct_+94
	DD	imagerel $chain$1$??$_Construct_n_copies_of_ty@U_Value_init_tag@std@@@?$vector@EV?$allocator@E@std@@@std@@AEAAX_KAEBU_Value_init_tag@1@@Z
pdata	ENDS
;	COMDAT pdata
pdata	SEGMENT
$pdata$??$make_unique@VRenderWindow@sf@@VVideoMode@2@AEAY08$$CBD$0A@@std@@YA?AV?$unique_ptr@VRenderWindow@sf@@U?$default_delete@VRenderWindow@sf@@@std@@@0@$$QEAVVideoMode@sf@@AEAY08$$CBD@Z DD imagerel $LN38@make_uniqu
	DD	imagerel $LN38@make_uniqu+295
	DD	imagerel $unwind$??$make_unique@VRenderWindow@sf@@VVideoMode@2@AEAY08$$CBD$0A@@std@@YA?AV?$unique_ptr@VRenderWindow@sf@@U?$default_delete@VRenderWindow@sf@@@std@@@0@$$QEAVVideoMode@sf@@AEAY08$$CBD@Z
pdata	ENDS
;	COMDAT pdata
pdata	SEGMENT
$pdata$?dtor$0@?0???$make_unique@VRenderWindow@sf@@VVideoMode@2@AEAY08$$CBD$0A@@std@@YA?AV?$unique_ptr@VRenderWindow@sf@@U?$default_delete@VRenderWindow@sf@@@std@@@0@$$QEAVVideoMode@sf@@AEAY08$$CBD@Z@4HA DD imagerel ?dtor$0@?0???$make_unique@VRenderWindow@sf@@VVideoMode@2@AEAY08$$CBD$0A@@std@@YA?AV?$unique_ptr@VRenderWindow@sf@@U?$default_delete@VRenderWindow@sf@@@std@@@0@$$QEAVVideoMode@sf@@AEAY08$$CBD@Z@4HA
	DD	imagerel ?dtor$0@?0???$make_unique@VRenderWindow@sf@@VVideoMode@2@AEAY08$$CBD$0A@@std@@YA?AV?$unique_ptr@VRenderWindow@sf@@U?$default_delete@VRenderWindow@sf@@@std@@@0@$$QEAVVideoMode@sf@@AEAY08$$CBD@Z@4HA+29
	DD	imagerel $unwind$?dtor$0@?0???$make_unique@VRenderWindow@sf@@VVideoMode@2@AEAY08$$CBD$0A@@std@@YA?AV?$unique_ptr@VRenderWindow@sf@@U?$default_delete@VRenderWindow@sf@@@std@@@0@$$QEAVVideoMode@sf@@AEAY08$$CBD@Z@4HA
pdata	ENDS
;	COMDAT pdata
pdata	SEGMENT
$pdata$?dtor$1@?0???$make_unique@VRenderWindow@sf@@VVideoMode@2@AEAY08$$CBD$0A@@std@@YA?AV?$unique_ptr@VRenderWindow@sf@@U?$default_delete@VRenderWindow@sf@@@std@@@0@$$QEAVVideoMode@sf@@AEAY08$$CBD@Z@4HA DD imagerel ?dtor$1@?0???$make_unique@VRenderWindow@sf@@VVideoMode@2@AEAY08$$CBD$0A@@std@@YA?AV?$unique_ptr@VRenderWindow@sf@@U?$default_delete@VRenderWindow@sf@@@std@@@0@$$QEAVVideoMode@sf@@AEAY08$$CBD@Z@4HA
	DD	imagerel ?dtor$1@?0???$make_unique@VRenderWindow@sf@@VVideoMode@2@AEAY08$$CBD$0A@@std@@YA?AV?$unique_ptr@VRenderWindow@sf@@U?$default_delete@VRenderWindow@sf@@@std@@@0@$$QEAVVideoMode@sf@@AEAY08$$CBD@Z@4HA+38
	DD	imagerel $unwind$?dtor$1@?0???$make_unique@VRenderWindow@sf@@VVideoMode@2@AEAY08$$CBD$0A@@std@@YA?AV?$unique_ptr@VRenderWindow@sf@@U?$default_delete@VRenderWindow@sf@@@std@@@0@$$QEAVVideoMode@sf@@AEAY08$$CBD@Z@4HA
pdata	ENDS
;	COMDAT pdata
pdata	SEGMENT
$pdata$?dtor$2@?0???$make_unique@VRenderWindow@sf@@VVideoMode@2@AEAY08$$CBD$0A@@std@@YA?AV?$unique_ptr@VRenderWindow@sf@@U?$default_delete@VRenderWindow@sf@@@std@@@0@$$QEAVVideoMode@sf@@AEAY08$$CBD@Z@4HA DD imagerel ?dtor$2@?0???$make_unique@VRenderWindow@sf@@VVideoMode@2@AEAY08$$CBD$0A@@std@@YA?AV?$unique_ptr@VRenderWindow@sf@@U?$default_delete@VRenderWindow@sf@@@std@@@0@$$QEAVVideoMode@sf@@AEAY08$$CBD@Z@4HA
	DD	imagerel ?dtor$2@?0???$make_unique@VRenderWindow@sf@@VVideoMode@2@AEAY08$$CBD$0A@@std@@YA?AV?$unique_ptr@VRenderWindow@sf@@U?$default_delete@VRenderWindow@sf@@@std@@@0@$$QEAVVideoMode@sf@@AEAY08$$CBD@Z@4HA+42
	DD	imagerel $unwind$?dtor$2@?0???$make_unique@VRenderWindow@sf@@VVideoMode@2@AEAY08$$CBD$0A@@std@@YA?AV?$unique_ptr@VRenderWindow@sf@@U?$default_delete@VRenderWindow@sf@@@std@@@0@$$QEAVVideoMode@sf@@AEAY08$$CBD@Z@4HA
pdata	ENDS
;	COMDAT pdata
pdata	SEGMENT
$pdata$??$make_unique@VWorld@@$$V$0A@@std@@YA?AV?$unique_ptr@VWorld@@U?$default_delete@VWorld@@@std@@@0@XZ DD imagerel $LN18@make_uniqu
	DD	imagerel $LN18@make_uniqu+88
	DD	imagerel $unwind$??$make_unique@VWorld@@$$V$0A@@std@@YA?AV?$unique_ptr@VWorld@@U?$default_delete@VWorld@@@std@@@0@XZ
pdata	ENDS
;	COMDAT pdata
pdata	SEGMENT
$pdata$?dtor$0@?0???$make_unique@VWorld@@$$V$0A@@std@@YA?AV?$unique_ptr@VWorld@@U?$default_delete@VWorld@@@std@@@0@XZ@4HA DD imagerel ?dtor$0@?0???$make_unique@VWorld@@$$V$0A@@std@@YA?AV?$unique_ptr@VWorld@@U?$default_delete@VWorld@@@std@@@0@XZ@4HA
	DD	imagerel ?dtor$0@?0???$make_unique@VWorld@@$$V$0A@@std@@YA?AV?$unique_ptr@VWorld@@U?$default_delete@VWorld@@@std@@@0@XZ@4HA+29
	DD	imagerel $unwind$?dtor$0@?0???$make_unique@VWorld@@$$V$0A@@std@@YA?AV?$unique_ptr@VWorld@@U?$default_delete@VWorld@@@std@@@0@XZ@4HA
pdata	ENDS
;	COMDAT pdata
pdata	SEGMENT
$pdata$??$make_unique@VTexture@sf@@$$V$0A@@std@@YA?AV?$unique_ptr@VTexture@sf@@U?$default_delete@VTexture@sf@@@std@@@0@XZ DD imagerel $LN16@make_uniqu
	DD	imagerel $LN16@make_uniqu+63
	DD	imagerel $unwind$??$make_unique@VTexture@sf@@$$V$0A@@std@@YA?AV?$unique_ptr@VTexture@sf@@U?$default_delete@VTexture@sf@@@std@@@0@XZ
pdata	ENDS
;	COMDAT pdata
pdata	SEGMENT
$pdata$?dtor$0@?0???$make_unique@VTexture@sf@@$$V$0A@@std@@YA?AV?$unique_ptr@VTexture@sf@@U?$default_delete@VTexture@sf@@@std@@@0@XZ@4HA DD imagerel ?dtor$0@?0???$make_unique@VTexture@sf@@$$V$0A@@std@@YA?AV?$unique_ptr@VTexture@sf@@U?$default_delete@VTexture@sf@@@std@@@0@XZ@4HA
	DD	imagerel ?dtor$0@?0???$make_unique@VTexture@sf@@$$V$0A@@std@@YA?AV?$unique_ptr@VTexture@sf@@U?$default_delete@VTexture@sf@@@std@@@0@XZ@4HA+29
	DD	imagerel $unwind$?dtor$0@?0???$make_unique@VTexture@sf@@$$V$0A@@std@@YA?AV?$unique_ptr@VTexture@sf@@U?$default_delete@VTexture@sf@@@std@@@0@XZ@4HA
pdata	ENDS
;	COMDAT pdata
pdata	SEGMENT
$pdata$?deallocate@?$allocator@VChunk@@@std@@QEAAXQEAVChunk@@_K@Z DD imagerel $LN21@deallocate
	DD	imagerel $LN21@deallocate+66
	DD	imagerel $unwind$?deallocate@?$allocator@VChunk@@@std@@QEAAXQEAVChunk@@_K@Z
pdata	ENDS
;	COMDAT pdata
pdata	SEGMENT
$pdata$?deallocate@?$allocator@V?$vector@MV?$allocator@M@std@@@std@@@std@@QEAAXQEAV?$vector@MV?$allocator@M@std@@@2@_K@Z DD imagerel $LN21@deallocate
	DD	imagerel $LN21@deallocate+67
	DD	imagerel $unwind$?deallocate@?$allocator@V?$vector@MV?$allocator@M@std@@@std@@@std@@QEAAXQEAV?$vector@MV?$allocator@M@std@@@2@_K@Z
pdata	ENDS
;	COMDAT pdata
pdata	SEGMENT
$pdata$?_Tidy@?$vector@VChunk@@V?$allocator@VChunk@@@std@@@std@@AEAAXXZ DD imagerel $LN39@Tidy
	DD	imagerel $LN39@Tidy+122
	DD	imagerel $unwind$?_Tidy@?$vector@VChunk@@V?$allocator@VChunk@@@std@@@std@@AEAAXXZ
pdata	ENDS
;	COMDAT pdata
pdata	SEGMENT
$pdata$?_Tidy@?$vector@V?$vector@MV?$allocator@M@std@@@std@@V?$allocator@V?$vector@MV?$allocator@M@std@@@std@@@2@@std@@AEAAXXZ DD imagerel $LN37@Tidy
	DD	imagerel $LN37@Tidy+135
	DD	imagerel $unwind$?_Tidy@?$vector@V?$vector@MV?$allocator@M@std@@@std@@V?$allocator@V?$vector@MV?$allocator@M@std@@@std@@@2@@std@@AEAAXXZ
pdata	ENDS
;	COMDAT pdata
pdata	SEGMENT
$pdata$?deallocate@?$allocator@E@std@@QEAAXQEAE_K@Z DD imagerel $LN21@deallocate
	DD	imagerel $LN21@deallocate+62
	DD	imagerel $unwind$?deallocate@?$allocator@E@std@@QEAAXQEAE_K@Z
pdata	ENDS
;	COMDAT pdata
pdata	SEGMENT
$pdata$?deallocate@?$allocator@VVertex@sf@@@std@@QEAAXQEAVVertex@sf@@_K@Z DD imagerel $LN21@deallocate
	DD	imagerel $LN21@deallocate+67
	DD	imagerel $unwind$?deallocate@?$allocator@VVertex@sf@@@std@@QEAAXQEAVVertex@sf@@_K@Z
pdata	ENDS
;	COMDAT pdata
pdata	SEGMENT
$pdata$??1ColonyController@@QEAA@XZ DD imagerel $LN29@ColonyCont
	DD	imagerel $LN29@ColonyCont+140
	DD	imagerel $unwind$??1ColonyController@@QEAA@XZ
pdata	ENDS
;	COMDAT pdata
pdata	SEGMENT
$pdata$??1?$array@VColonyController@@$04@std@@QEAA@XZ DD imagerel $LN5@array
	DD	imagerel $LN5@array+42
	DD	imagerel $unwind$??1?$array@VColonyController@@$04@std@@QEAA@XZ
pdata	ENDS
;	COMDAT pdata
pdata	SEGMENT
$pdata$??1World@@QEAA@XZ DD imagerel $LN21@World
	DD	imagerel $LN21@World+110
	DD	imagerel $unwind$??1World@@QEAA@XZ
pdata	ENDS
;	COMDAT pdata
pdata	SEGMENT
$pdata$??_GWorld@@QEAAPEAXI@Z DD imagerel $LN25@scalar
	DD	imagerel $LN25@scalar+127
	DD	imagerel $unwind$??_GWorld@@QEAAPEAXI@Z
pdata	ENDS
;	COMDAT pdata
pdata	SEGMENT
$pdata$??_GTexture@sf@@QEAAPEAXI@Z DD imagerel $LN6@scalar
	DD	imagerel $LN6@scalar+37
	DD	imagerel $unwind$??_GTexture@sf@@QEAAPEAXI@Z
pdata	ENDS
;	COMDAT pdata
pdata	SEGMENT
$pdata$??R<lambda_1>@?1??assign@?$basic_string@DU?$char_traits@D@std@@V?$allocator@D@2@@std@@QEAAAEAV23@QEBD_K@Z@QEBAXQEAD10@Z DD imagerel $LN9@operator
	DD	imagerel $LN9@operator+46
	DD	imagerel $unwind$??R<lambda_1>@?1??assign@?$basic_string@DU?$char_traits@D@std@@V?$allocator@D@2@@std@@QEAAAEAV23@QEBD_K@Z@QEBAXQEAD10@Z
pdata	ENDS
;	COMDAT pdata
pdata	SEGMENT
$pdata$?assign@?$basic_string@DU?$char_traits@D@std@@V?$allocator@D@2@@std@@QEAAAEAV12@QEBD_K@Z DD imagerel $LN134@assign
	DD	imagerel $LN134@assign+145
	DD	imagerel $unwind$?assign@?$basic_string@DU?$char_traits@D@std@@V?$allocator@D@2@@std@@QEAAAEAV12@QEBD_K@Z
pdata	ENDS
;	COMDAT pdata
pdata	SEGMENT
$pdata$0$?assign@?$basic_string@DU?$char_traits@D@std@@V?$allocator@D@2@@std@@QEAAAEAV12@QEBD_K@Z DD imagerel $LN134@assign+145
	DD	imagerel $LN134@assign+338
	DD	imagerel $chain$0$?assign@?$basic_string@DU?$char_traits@D@std@@V?$allocator@D@2@@std@@QEAAAEAV12@QEBD_K@Z
pdata	ENDS
;	COMDAT pdata
pdata	SEGMENT
$pdata$2$?assign@?$basic_string@DU?$char_traits@D@std@@V?$allocator@D@2@@std@@QEAAAEAV12@QEBD_K@Z DD imagerel $LN134@assign+338
	DD	imagerel $LN134@assign+345
	DD	imagerel $chain$2$?assign@?$basic_string@DU?$char_traits@D@std@@V?$allocator@D@2@@std@@QEAAAEAV12@QEBD_K@Z
pdata	ENDS
;	COMDAT pdata
pdata	SEGMENT
$pdata$3$?assign@?$basic_string@DU?$char_traits@D@std@@V?$allocator@D@2@@std@@QEAAAEAV12@QEBD_K@Z DD imagerel $LN134@assign+345
	DD	imagerel $LN134@assign+351
	DD	imagerel $chain$3$?assign@?$basic_string@DU?$char_traits@D@std@@V?$allocator@D@2@@std@@QEAAAEAV12@QEBD_K@Z
pdata	ENDS
;	COMDAT pdata
pdata	SEGMENT
$pdata$?_Tidy@?$vector@VVertex@sf@@V?$allocator@VVertex@sf@@@std@@@std@@AEAAXXZ DD imagerel $LN39@Tidy
	DD	imagerel $LN39@Tidy+137
	DD	imagerel $unwind$?_Tidy@?$vector@VVertex@sf@@V?$allocator@VVertex@sf@@@std@@@std@@AEAAXXZ
pdata	ENDS
;	COMDAT pdata
pdata	SEGMENT
$pdata$?_Tidy@?$vector@EV?$allocator@E@std@@@std@@AEAAXXZ DD imagerel $LN39@Tidy
	DD	imagerel $LN39@Tidy+88
	DD	imagerel $unwind$?_Tidy@?$vector@EV?$allocator@E@std@@@std@@AEAAXXZ
pdata	ENDS
;	COMDAT pdata
pdata	SEGMENT
$pdata$??R?$default_delete@VWorld@@@std@@QEBAXPEAVWorld@@@Z DD imagerel $LN30@operator
	DD	imagerel $LN30@operator+128
	DD	imagerel $unwind$??R?$default_delete@VWorld@@@std@@QEBAXPEAVWorld@@@Z
pdata	ENDS
;	COMDAT pdata
pdata	SEGMENT
$pdata$?reset@?$unique_ptr@VWorld@@U?$default_delete@VWorld@@@std@@@std@@QEAAXPEAVWorld@@@Z DD imagerel $LN36@reset
	DD	imagerel $LN36@reset+144
	DD	imagerel $unwind$?reset@?$unique_ptr@VWorld@@U?$default_delete@VWorld@@@std@@@std@@QEAAXPEAVWorld@@@Z
pdata	ENDS
;	COMDAT pdata
pdata	SEGMENT
$pdata$??R?$default_delete@VTexture@sf@@@std@@QEBAXPEAVTexture@sf@@@Z DD imagerel $LN11@operator
	DD	imagerel $LN11@operator+41
	DD	imagerel $unwind$??R?$default_delete@VTexture@sf@@@std@@QEBAXPEAVTexture@sf@@@Z
pdata	ENDS
;	COMDAT pdata
pdata	SEGMENT
$pdata$??0?$basic_string@DU?$char_traits@D@std@@V?$allocator@D@2@@std@@QEAA@QEBD@Z DD imagerel $LN29@basic_stri
	DD	imagerel $LN29@basic_stri+48
	DD	imagerel $unwind$??0?$basic_string@DU?$char_traits@D@std@@V?$allocator@D@2@@std@@QEAA@QEBD@Z
pdata	ENDS
;	COMDAT pdata
pdata	SEGMENT
$pdata$??1?$vector@VVertex@sf@@V?$allocator@VVertex@sf@@@std@@@std@@QEAA@XZ DD imagerel $LN42@vector
	DD	imagerel $LN42@vector+137
	DD	imagerel $unwind$??1?$vector@VVertex@sf@@V?$allocator@VVertex@sf@@@std@@@std@@QEAA@XZ
pdata	ENDS
;	COMDAT pdata
pdata	SEGMENT
$pdata$?resize@?$vector@VVertex@sf@@V?$allocator@VVertex@sf@@@std@@@std@@QEAAX_K@Z DD imagerel $LN55@resize
	DD	imagerel $LN55@resize+197
	DD	imagerel $unwind$?resize@?$vector@VVertex@sf@@V?$allocator@VVertex@sf@@@std@@@std@@QEAAX_K@Z
pdata	ENDS
;	COMDAT pdata
pdata	SEGMENT
$pdata$??0?$vector@EV?$allocator@E@std@@@std@@QEAA@_KAEBV?$allocator@E@1@@Z DD imagerel $LN121@vector
	DD	imagerel $LN121@vector+61
	DD	imagerel $unwind$??0?$vector@EV?$allocator@E@std@@@std@@QEAA@_KAEBV?$allocator@E@1@@Z
pdata	ENDS
;	COMDAT pdata
pdata	SEGMENT
$pdata$0$??0?$vector@EV?$allocator@E@std@@@std@@QEAA@_KAEBV?$allocator@E@1@@Z DD imagerel $LN121@vector+61
	DD	imagerel $LN121@vector+145
	DD	imagerel $chain$0$??0?$vector@EV?$allocator@E@std@@@std@@QEAA@_KAEBV?$allocator@E@1@@Z
pdata	ENDS
;	COMDAT pdata
pdata	SEGMENT
$pdata$1$??0?$vector@EV?$allocator@E@std@@@std@@QEAA@_KAEBV?$allocator@E@1@@Z DD imagerel $LN121@vector+145
	DD	imagerel $LN121@vector+152
	DD	imagerel $chain$1$??0?$vector@EV?$allocator@E@std@@@std@@QEAA@_KAEBV?$allocator@E@1@@Z
pdata	ENDS
;	COMDAT pdata
pdata	SEGMENT
$pdata$??1?$vector@EV?$allocator@E@std@@@std@@QEAA@XZ DD imagerel $LN42@vector
	DD	imagerel $LN42@vector+99
	DD	imagerel $unwind$??1?$vector@EV?$allocator@E@std@@@std@@QEAA@XZ
pdata	ENDS
;	COMDAT pdata
pdata	SEGMENT
$pdata$??4?$unique_ptr@VWorld@@U?$default_delete@VWorld@@@std@@@std@@QEAAAEAV01@$$QEAV01@@Z DD imagerel $LN53@operator
	DD	imagerel $LN53@operator+179
	DD	imagerel $unwind$??4?$unique_ptr@VWorld@@U?$default_delete@VWorld@@@std@@@std@@QEAAAEAV01@$$QEAV01@@Z
pdata	ENDS
;	COMDAT pdata
pdata	SEGMENT
$pdata$??1?$unique_ptr@VWorld@@U?$default_delete@VWorld@@@std@@@std@@QEAA@XZ DD imagerel $LN34@unique_ptr
	DD	imagerel $LN34@unique_ptr+133
	DD	imagerel $unwind$??1?$unique_ptr@VWorld@@U?$default_delete@VWorld@@@std@@@std@@QEAA@XZ
pdata	ENDS
;	COMDAT pdata
pdata	SEGMENT
$pdata$??4?$unique_ptr@VRenderWindow@sf@@U?$default_delete@VRenderWindow@sf@@@std@@@std@@QEAAAEAV01@$$QEAV01@@Z DD imagerel $LN31@operator
	DD	imagerel $LN31@operator+67
	DD	imagerel $unwind$??4?$unique_ptr@VRenderWindow@sf@@U?$default_delete@VRenderWindow@sf@@@std@@@std@@QEAAAEAV01@$$QEAV01@@Z
pdata	ENDS
;	COMDAT pdata
pdata	SEGMENT
$pdata$??1?$unique_ptr@VTexture@sf@@U?$default_delete@VTexture@sf@@@std@@@std@@QEAA@XZ DD imagerel $LN15@unique_ptr
	DD	imagerel $LN15@unique_ptr+51
	DD	imagerel $unwind$??1?$unique_ptr@VTexture@sf@@U?$default_delete@VTexture@sf@@@std@@@std@@QEAA@XZ
pdata	ENDS
;	COMDAT pdata
pdata	SEGMENT
$pdata$main DD	imagerel $LN456@main
	DD	imagerel $LN456@main+2923
	DD	imagerel $unwind$main
pdata	ENDS
;	COMDAT pdata
pdata	SEGMENT
$pdata$main$dtor$5 DD imagerel main$dtor$5
	DD	imagerel main$dtor$5+32
	DD	imagerel $unwind$main$dtor$5
pdata	ENDS
;	COMDAT pdata
pdata	SEGMENT
$pdata$main$dtor$6 DD imagerel main$dtor$6
	DD	imagerel main$dtor$6+44
	DD	imagerel $unwind$main$dtor$6
pdata	ENDS
;	COMDAT pdata
pdata	SEGMENT
$pdata$main$dtor$7 DD imagerel main$dtor$7
	DD	imagerel main$dtor$7+45
	DD	imagerel $unwind$main$dtor$7
pdata	ENDS
;	COMDAT pdata
pdata	SEGMENT
$pdata$main$dtor$10 DD imagerel main$dtor$10
	DD	imagerel main$dtor$10+32
	DD	imagerel $unwind$main$dtor$10
pdata	ENDS
;	COMDAT pdata
pdata	SEGMENT
$pdata$main$dtor$17 DD imagerel main$dtor$17
	DD	imagerel main$dtor$17+32
	DD	imagerel $unwind$main$dtor$17
pdata	ENDS
;	COMDAT pdata
pdata	SEGMENT
$pdata$?PollInput@@YAXXZ DD imagerel $LN421@PollInput
	DD	imagerel $LN421@PollInput+5518
	DD	imagerel $unwind$?PollInput@@YAXXZ
pdata	ENDS
;	COMDAT pdata
pdata	SEGMENT
$pdata$?dtor$1@?0??PollInput@@YAXXZ@4HA DD imagerel ?dtor$1@?0??PollInput@@YAXXZ@4HA
	DD	imagerel ?dtor$1@?0??PollInput@@YAXXZ@4HA+29
	DD	imagerel $unwind$?dtor$1@?0??PollInput@@YAXXZ@4HA
pdata	ENDS
;	COMDAT pdata
pdata	SEGMENT
$pdata$?Update@@YAXXZ DD imagerel $LN43@Update
	DD	imagerel $LN43@Update+305
	DD	imagerel $unwind$?Update@@YAXXZ
pdata	ENDS
;	COMDAT pdata
pdata	SEGMENT
$pdata$?Render@@YAXXZ DD imagerel $LN130@Render
	DD	imagerel $LN130@Render+1329
	DD	imagerel $unwind$?Render@@YAXXZ
pdata	ENDS
;	COMDAT pdata
pdata	SEGMENT
$pdata$?RenderGraph@@YAXAEAV?$vector@V?$vector@MV?$allocator@M@std@@@std@@V?$allocator@V?$vector@MV?$allocator@M@std@@@std@@@2@@std@@@Z DD imagerel $LN161@RenderGrap
	DD	imagerel $LN161@RenderGrap+862
	DD	imagerel $unwind$?RenderGraph@@YAXAEAV?$vector@V?$vector@MV?$allocator@M@std@@@std@@V?$allocator@V?$vector@MV?$allocator@M@std@@@std@@@2@@std@@@Z
pdata	ENDS
;	COMDAT pdata
pdata	SEGMENT
$pdata$??__EGraphArea@@YAXXZ DD imagerel ??__EGraphArea@@YAXXZ
	DD	imagerel ??__EGraphArea@@YAXXZ+54
	DD	imagerel $unwind$??__EGraphArea@@YAXXZ
pdata	ENDS
;	COMDAT pdata
pdata	SEGMENT
$pdata$??__FGraphVertexBuffer@@YAXXZ DD imagerel ??__FGraphVertexBuffer@@YAXXZ
	DD	imagerel ??__FGraphVertexBuffer@@YAXXZ+137
	DD	imagerel $unwind$??__FGraphVertexBuffer@@YAXXZ
pdata	ENDS
;	COMDAT pdata
pdata	SEGMENT
$pdata$??__Ftex_grid@@YAXXZ DD imagerel ??__Ftex_grid@@YAXXZ
	DD	imagerel ??__Ftex_grid@@YAXXZ+103
	DD	imagerel $unwind$??__Ftex_grid@@YAXXZ
pdata	ENDS
;	COMDAT pdata
pdata	SEGMENT
$pdata$??__Etex_grid@@YAXXZ DD imagerel ??__Etex_grid@@YAXXZ
	DD	imagerel ??__Etex_grid@@YAXXZ+23
	DD	imagerel $unwind$??__Etex_grid@@YAXXZ
pdata	ENDS
;	COMDAT pdata
pdata	SEGMENT
$pdata$0$??__Etex_grid@@YAXXZ DD imagerel ??__Etex_grid@@YAXXZ+23
	DD	imagerel ??__Etex_grid@@YAXXZ+98
	DD	imagerel $chain$0$??__Etex_grid@@YAXXZ
pdata	ENDS
;	COMDAT pdata
pdata	SEGMENT
$pdata$1$??__Etex_grid@@YAXXZ DD imagerel ??__Etex_grid@@YAXXZ+98
	DD	imagerel ??__Etex_grid@@YAXXZ+105
	DD	imagerel $chain$1$??__Etex_grid@@YAXXZ
pdata	ENDS
;	COMDAT pdata
pdata	SEGMENT
$pdata$??__FPixels@@YAXXZ DD imagerel ??__FPixels@@YAXXZ
	DD	imagerel ??__FPixels@@YAXXZ+99
	DD	imagerel $unwind$??__FPixels@@YAXXZ
pdata	ENDS
;	COMDAT pdata
pdata	SEGMENT
$pdata$??__EPixels@@YAXXZ DD imagerel ??__EPixels@@YAXXZ
	DD	imagerel ??__EPixels@@YAXXZ+23
	DD	imagerel $unwind$??__EPixels@@YAXXZ
pdata	ENDS
;	COMDAT pdata
pdata	SEGMENT
$pdata$0$??__EPixels@@YAXXZ DD imagerel ??__EPixels@@YAXXZ+23
	DD	imagerel ??__EPixels@@YAXXZ+98
	DD	imagerel $chain$0$??__EPixels@@YAXXZ
pdata	ENDS
;	COMDAT pdata
pdata	SEGMENT
$pdata$1$??__EPixels@@YAXXZ DD imagerel ??__EPixels@@YAXXZ+98
	DD	imagerel ??__EPixels@@YAXXZ+105
	DD	imagerel $chain$1$??__EPixels@@YAXXZ
pdata	ENDS
;	COMDAT pdata
pdata	SEGMENT
$pdata$??__FPheremoneTexture@@YAXXZ DD imagerel ??__FPheremoneTexture@@YAXXZ
	DD	imagerel ??__FPheremoneTexture@@YAXXZ+51
	DD	imagerel $unwind$??__FPheremoneTexture@@YAXXZ
pdata	ENDS
;	COMDAT pdata
pdata	SEGMENT
$pdata$??__EPheremoneTexture@@YAXXZ DD imagerel ??__EPheremoneTexture@@YAXXZ
	DD	imagerel ??__EPheremoneTexture@@YAXXZ+61
	DD	imagerel $unwind$??__EPheremoneTexture@@YAXXZ
pdata	ENDS
;	COMDAT pdata
pdata	SEGMENT
$pdata$?dtor$0@?0???__EPheremoneTexture@@YAXXZ@4HA DD imagerel ?dtor$0@?0???__EPheremoneTexture@@YAXXZ@4HA
	DD	imagerel ?dtor$0@?0???__EPheremoneTexture@@YAXXZ@4HA+29
	DD	imagerel $unwind$?dtor$0@?0???__EPheremoneTexture@@YAXXZ@4HA
pdata	ENDS
;	COMDAT pdata
pdata	SEGMENT
$pdata$??__EPheremoneMap@@YAXXZ DD imagerel ??__EPheremoneMap@@YAXXZ
	DD	imagerel ??__EPheremoneMap@@YAXXZ+58
	DD	imagerel $unwind$??__EPheremoneMap@@YAXXZ
pdata	ENDS
;	COMDAT pdata
pdata	SEGMENT
$pdata$??__Eshape@@YAXXZ DD imagerel ??__Eshape@@YAXXZ
	DD	imagerel ??__Eshape@@YAXXZ+47
	DD	imagerel $unwind$??__Eshape@@YAXXZ
pdata	ENDS
;	COMDAT pdata
pdata	SEGMENT
$pdata$??__Fworld@@YAXXZ DD imagerel ??__Fworld@@YAXXZ
	DD	imagerel ??__Fworld@@YAXXZ+137
	DD	imagerel $unwind$??__Fworld@@YAXXZ
pdata	ENDS
;	COMDAT pdata
pdata	SEGMENT
$pdata$?now@steady_clock@chrono@std@@SA?AV?$time_point@Usteady_clock@chrono@std@@V?$duration@_JU?$ratio@$00$0DLJKMKAA@@std@@@23@@23@XZ DD imagerel $LN9@now
	DD	imagerel $LN9@now+75
	DD	imagerel $unwind$?now@steady_clock@chrono@std@@SA?AV?$time_point@Usteady_clock@chrono@std@@V?$duration@_JU?$ratio@$00$0DLJKMKAA@@std@@@23@@23@XZ
pdata	ENDS
;	COMDAT pdata
pdata	SEGMENT
$pdata$??0locale@std@@QEAA@XZ DD imagerel $LN5@locale
	DD	imagerel $LN5@locale+40
	DD	imagerel $unwind$??0locale@std@@QEAA@XZ
pdata	ENDS
;	COMDAT pdata
pdata	SEGMENT
$pdata$?Render$omp$1@@YAXXZ DD imagerel ?Render$omp$1@@YAXXZ
	DD	imagerel ?Render$omp$1@@YAXXZ+87
	DD	imagerel $unwind$?Render$omp$1@@YAXXZ
pdata	ENDS
;	COMDAT pdata
pdata	SEGMENT
$pdata$6$?Render$omp$1@@YAXXZ DD imagerel ?Render$omp$1@@YAXXZ+87
	DD	imagerel ?Render$omp$1@@YAXXZ+952
	DD	imagerel $chain$6$?Render$omp$1@@YAXXZ
pdata	ENDS
;	COMDAT pdata
pdata	SEGMENT
$pdata$7$?Render$omp$1@@YAXXZ DD imagerel ?Render$omp$1@@YAXXZ+952
	DD	imagerel ?Render$omp$1@@YAXXZ+963
	DD	imagerel $chain$7$?Render$omp$1@@YAXXZ
pdata	ENDS
CRT$XCU	SEGMENT
?world$initializer$@@3P6AXXZEA DQ FLAT:??__Eworld@@YAXXZ ; world$initializer$
?ScreenSize@@3U?$vec@$01M$0A@@glm@@A DQ 04448000044480000r ; 8.85444e+20 ; ScreenSize
_DATA	ENDS
;	COMDAT xdata
xdata	SEGMENT
$chain$7$?Render$omp$1@@YAXXZ DD 021H
	DD	imagerel ?Render$omp$1@@YAXXZ
	DD	imagerel ?Render$omp$1@@YAXXZ+87
	DD	imagerel $unwind$?Render$omp$1@@YAXXZ
xdata	ENDS
;	COMDAT xdata
xdata	SEGMENT
$chain$6$?Render$omp$1@@YAXXZ DD 0e4121H
	DD	037841H
	DD	046833H
	DD	0af42aH
	DD	0b7425H
	DD	0c641aH
	DD	0d540dH
	DD	0123408H
	DD	imagerel ?Render$omp$1@@YAXXZ
	DD	imagerel ?Render$omp$1@@YAXXZ+87
	DD	imagerel $unwind$?Render$omp$1@@YAXXZ
xdata	ENDS
;	COMDAT xdata
xdata	SEGMENT
$unwind$?Render$omp$1@@YAXXZ DD 020901H
	DD	0e005d209H
xdata	ENDS
;	COMDAT xdata
xdata	SEGMENT
$ip2state$??0locale@std@@QEAA@XZ DD imagerel ??0locale@std@@QEAA@XZ+20
	DD	0ffffffffH
xdata	ENDS
;	COMDAT CONST
CONST	SEGMENT
$cppxdata$??0locale@std@@QEAA@XZ DQ 00000000019930522r ; 2.11987e-315
	DQ	00000000000000000r		; 0
	DQ	00000000100000000r		; 2.122e-314
	DD	imagerel $ip2state$??0locale@std@@QEAA@XZ
	DQ	00000000000000020r		; 1.58101e-322
	DD	05H
CONST	ENDS
;	COMDAT xdata
xdata	SEGMENT
$unwind$??0locale@std@@QEAA@XZ DD 020f19H
	DD	030025206H
	DD	imagerel __CxxFrameHandler3
	DD	imagerel $cppxdata$??0locale@std@@QEAA@XZ
xdata	ENDS
;	COMDAT xdata
xdata	SEGMENT
$unwind$?now@steady_clock@chrono@std@@SA?AV?$time_point@Usteady_clock@chrono@std@@V?$duration@_JU?$ratio@$00$0DLJKMKAA@@std@@@23@@23@XZ DD 040a01H
	DD	06340aH
	DD	07006320aH
xdata	ENDS
;	COMDAT xdata
xdata	SEGMENT
$ip2state$??__Fworld@@YAXXZ DD imagerel ??__Fworld@@YAXXZ+65
	DD	00H
	DD	imagerel ??__Fworld@@YAXXZ+113
	DD	0ffffffffH
xdata	ENDS
;	COMDAT xdata
xdata	SEGMENT
$stateUnwindMap$??__Fworld@@YAXXZ DD 0ffffffffH
	DD	imagerel __std_terminate
xdata	ENDS
;	COMDAT CONST
CONST	SEGMENT
$cppxdata$??__Fworld@@YAXXZ DQ 00000000119930522r ; 2.33398e-314
	DD	imagerel $stateUnwindMap$??__Fworld@@YAXXZ
	DQ	00000000000000000r		; 0
	DD	02H
	DD	imagerel $ip2state$??__Fworld@@YAXXZ
	DQ	00000000000000020r		; 1.58101e-322
	DD	01H
CONST	ENDS
;	COMDAT xdata
xdata	SEGMENT
$unwind$??__Fworld@@YAXXZ DD 020f11H
	DD	030025206H
	DD	imagerel __CxxFrameHandler3
	DD	imagerel $cppxdata$??__Fworld@@YAXXZ
xdata	ENDS
;	COMDAT xdata
xdata	SEGMENT
$unwind$??__Eshape@@YAXXZ DD 010401H
	DD	04204H
xdata	ENDS
;	COMDAT xdata
xdata	SEGMENT
$unwind$??__EPheremoneMap@@YAXXZ DD 010401H
	DD	04204H
xdata	ENDS
;	COMDAT xdata
xdata	SEGMENT
$unwind$?dtor$0@?0???__EPheremoneTexture@@YAXXZ@4HA DD 020601H
	DD	050023206H
xdata	ENDS
;	COMDAT xdata
xdata	SEGMENT
$ip2state$??__EPheremoneTexture@@YAXXZ DD imagerel ??__EPheremoneTexture@@YAXXZ+18
	DD	0ffffffffH
	DD	imagerel ??__EPheremoneTexture@@YAXXZ+31
	DD	00H
xdata	ENDS
;	COMDAT xdata
xdata	SEGMENT
$stateUnwindMap$??__EPheremoneTexture@@YAXXZ DD 0ffffffffH
	DD	imagerel ?dtor$0@?0???__EPheremoneTexture@@YAXXZ@4HA
xdata	ENDS
;	COMDAT CONST
CONST	SEGMENT
$cppxdata$??__EPheremoneTexture@@YAXXZ DQ 00000000119930522r ; 2.33398e-314
	DD	imagerel $stateUnwindMap$??__EPheremoneTexture@@YAXXZ
	DQ	00000000000000000r		; 0
	DD	02H
	DD	imagerel $ip2state$??__EPheremoneTexture@@YAXXZ
	DQ	00000000000000020r		; 1.58101e-322
	DD	01H
CONST	ENDS
;	COMDAT xdata
xdata	SEGMENT
$unwind$??__EPheremoneTexture@@YAXXZ DD 010d11H
	DD	06204H
	DD	imagerel __CxxFrameHandler3
	DD	imagerel $cppxdata$??__EPheremoneTexture@@YAXXZ
xdata	ENDS
;	COMDAT xdata
xdata	SEGMENT
$unwind$??__FPheremoneTexture@@YAXXZ DD 020601H
	DD	030023206H
xdata	ENDS
;	COMDAT xdata
xdata	SEGMENT
$chain$1$??__EPixels@@YAXXZ DD 021H
	DD	imagerel ??__EPixels@@YAXXZ
	DD	imagerel ??__EPixels@@YAXXZ+23
	DD	imagerel $unwind$??__EPixels@@YAXXZ
xdata	ENDS
;	COMDAT xdata
xdata	SEGMENT
$chain$0$??__EPixels@@YAXXZ DD 020521H
	DD	043405H
	DD	imagerel ??__EPixels@@YAXXZ
	DD	imagerel ??__EPixels@@YAXXZ+23
	DD	imagerel $unwind$??__EPixels@@YAXXZ
xdata	ENDS
;	COMDAT xdata
xdata	SEGMENT
$unwind$??__EPixels@@YAXXZ DD 010401H
	DD	04204H
xdata	ENDS
;	COMDAT xdata
xdata	SEGMENT
$unwind$??__FPixels@@YAXXZ DD 010401H
	DD	04204H
xdata	ENDS
;	COMDAT xdata
xdata	SEGMENT
$chain$1$??__Etex_grid@@YAXXZ DD 021H
	DD	imagerel ??__Etex_grid@@YAXXZ
	DD	imagerel ??__Etex_grid@@YAXXZ+23
	DD	imagerel $unwind$??__Etex_grid@@YAXXZ
xdata	ENDS
;	COMDAT xdata
xdata	SEGMENT
$chain$0$??__Etex_grid@@YAXXZ DD 020521H
	DD	043405H
	DD	imagerel ??__Etex_grid@@YAXXZ
	DD	imagerel ??__Etex_grid@@YAXXZ+23
	DD	imagerel $unwind$??__Etex_grid@@YAXXZ
xdata	ENDS
;	COMDAT xdata
xdata	SEGMENT
$unwind$??__Etex_grid@@YAXXZ DD 010401H
	DD	04204H
xdata	ENDS
;	COMDAT xdata
xdata	SEGMENT
$unwind$??__Ftex_grid@@YAXXZ DD 010401H
	DD	04204H
xdata	ENDS
;	COMDAT xdata
xdata	SEGMENT
$unwind$??__FGraphVertexBuffer@@YAXXZ DD 010401H
	DD	04204H
xdata	ENDS
;	COMDAT xdata
xdata	SEGMENT
$unwind$??__EGraphArea@@YAXXZ DD 010401H
	DD	04204H
xdata	ENDS
;	COMDAT xdata
xdata	SEGMENT
$unwind$?RenderGraph@@YAXAEAV?$vector@V?$vector@MV?$allocator@M@std@@@std@@V?$allocator@V?$vector@MV?$allocator@M@std@@@std@@@2@@std@@@Z DD 0c4f01H
	DD	03784fH
	DD	04683cH
	DD	0105412H
	DD	0f3412H
	DD	0e00e9212H
	DD	0600b700cH
xdata	ENDS
;	COMDAT xdata
xdata	SEGMENT
$unwind$?Render@@YAXXZ DD 0133101H
	DD	0ab831H
	DD	0ba829H
	DD	0c9824H
	DD	0d881fH
	DD	0e781aH
	DD	0f6815H
	DD	0200110H
	DD	07007e009H
	DD	050056006H
	DD	03004H
xdata	ENDS
;	COMDAT xdata
xdata	SEGMENT
$unwind$?Update@@YAXXZ DD 060f01H
	DD	07640fH
	DD	06340fH
	DD	0700b320fH
xdata	ENDS
;	COMDAT xdata
xdata	SEGMENT
$unwind$?dtor$1@?0??PollInput@@YAXXZ@4HA DD 020601H
	DD	050023206H
xdata	ENDS
;	COMDAT xdata
xdata	SEGMENT
$ip2state$?PollInput@@YAXXZ DD imagerel ?PollInput@@YAXXZ+120
	DD	0ffffffffH
	DD	imagerel ?PollInput@@YAXXZ+673
	DD	00H
	DD	imagerel ?PollInput@@YAXXZ+698
	DD	0ffffffffH
	DD	imagerel ?PollInput@@YAXXZ+761
	DD	01H
	DD	imagerel ?PollInput@@YAXXZ+809
	DD	0ffffffffH
xdata	ENDS
;	COMDAT xdata
xdata	SEGMENT
$stateUnwindMap$?PollInput@@YAXXZ DD 0ffffffffH
	DD	imagerel ?dtor$1@?0??PollInput@@YAXXZ@4HA
	DD	0ffffffffH
	DD	imagerel __std_terminate
xdata	ENDS
;	COMDAT CONST
CONST	SEGMENT
$cppxdata$?PollInput@@YAXXZ DQ 00000000219930522r ; 4.45598e-314
	DD	imagerel $stateUnwindMap$?PollInput@@YAXXZ
	DQ	00000000000000000r		; 0
	DD	05H
	DD	imagerel $ip2state$?PollInput@@YAXXZ
	DQ	00000000000000028r		; 1.97626e-322
	DD	01H
CONST	ENDS
;	COMDAT xdata
xdata	SEGMENT
$unwind$?PollInput@@YAXXZ DD 01f6d19H
	DD	06f85fH
	DD	07e859H
	DD	08d853H
	DD	09c84bH
	DD	0ab846H
	DD	0ba841H
	DD	0c983cH
	DD	0d8837H
	DD	0e7832H
	DD	0f682dH
	DD	025e428H
	DD	0247424H
	DD	0236420H
	DD	022341cH
	DD	020010fH
	DD	05004H
	DD	imagerel __GSHandlerCheck_EH
	DD	imagerel $cppxdata$?PollInput@@YAXXZ
	DD	05aH
xdata	ENDS
;	COMDAT xdata
xdata	SEGMENT
$unwind$main$dtor$17 DD 020601H
	DD	050023206H
xdata	ENDS
;	COMDAT xdata
xdata	SEGMENT
$unwind$main$dtor$10 DD 020601H
	DD	050023206H
xdata	ENDS
;	COMDAT xdata
xdata	SEGMENT
$unwind$main$dtor$7 DD 020601H
	DD	050023206H
xdata	ENDS
;	COMDAT xdata
xdata	SEGMENT
$unwind$main$dtor$6 DD 020601H
	DD	050023206H
xdata	ENDS
;	COMDAT xdata
xdata	SEGMENT
$unwind$main$dtor$5 DD 020601H
	DD	050023206H
xdata	ENDS
;	COMDAT xdata
xdata	SEGMENT
$ip2state$main DD imagerel main+137
	DD	0ffffffffH
	DD	imagerel main+167
	DD	00H
	DD	imagerel main+201
	DD	01H
	DD	imagerel main+240
	DD	02H
	DD	imagerel main+302
	DD	03H
	DD	imagerel main+421
	DD	0ffffffffH
	DD	imagerel main+590
	DD	06H
	DD	imagerel main+615
	DD	0ffffffffH
	DD	imagerel main+692
	DD	07H
	DD	imagerel main+741
	DD	0ffffffffH
	DD	imagerel main+2300
	DD	08H
	DD	imagerel main+2325
	DD	0ffffffffH
	DD	imagerel main+2401
	DD	07H
	DD	imagerel main+2449
	DD	0ffffffffH
xdata	ENDS
;	COMDAT xdata
xdata	SEGMENT
$stateUnwindMap$main DD 0ffffffffH
	DD	imagerel main$dtor$5
	DD	00H
	DD	imagerel __std_terminate
	DD	00H
	DD	imagerel main$dtor$6
	DD	02H
	DD	imagerel main$dtor$7
	DD	0ffffffffH
	DD	imagerel main$dtor$6
	DD	04H
	DD	imagerel main$dtor$7
	DD	0ffffffffH
	DD	imagerel main$dtor$10
	DD	0ffffffffH
	DD	imagerel __std_terminate
	DD	0ffffffffH
	DD	imagerel main$dtor$17
xdata	ENDS
;	COMDAT CONST
CONST	SEGMENT
$cppxdata$main DQ 00000000919930522r		; 1.93099e-313
	DD	imagerel $stateUnwindMap$main
	DQ	00000000000000000r		; 0
	DD	0eH
	DD	imagerel $ip2state$main
	DQ	00000000000000070r		; 5.53354e-322
	DD	01H
CONST	ENDS
;	COMDAT xdata
xdata	SEGMENT
$unwind$main DD	01f6511H
	DD	0bf865H
	DD	0ce85dH
	DD	0dd855H
	DD	0ec84dH
	DD	0fb845H
	DD	010a83dH
	DD	0119838H
	DD	0128833H
	DD	013782eH
	DD	0146829H
	DD	0316424H
	DD	0303420H
	DD	02a0113H
	DD	0e00af00cH
	DD	0c006d008H
	DD	07004H
	DD	imagerel __CxxFrameHandler3
	DD	imagerel $cppxdata$main
xdata	ENDS
;	COMDAT xdata
xdata	SEGMENT
$unwind$??1?$unique_ptr@VTexture@sf@@U?$default_delete@VTexture@sf@@@std@@@std@@QEAA@XZ DD 020601H
	DD	030023206H
xdata	ENDS
;	COMDAT xdata
xdata	SEGMENT
$unwind$??4?$unique_ptr@VRenderWindow@sf@@U?$default_delete@VRenderWindow@sf@@@std@@@std@@QEAAAEAV01@$$QEAV01@@Z DD 020601H
	DD	030023206H
xdata	ENDS
;	COMDAT xdata
xdata	SEGMENT
$ip2state$??1?$unique_ptr@VWorld@@U?$default_delete@VWorld@@@std@@@std@@QEAA@XZ DD imagerel ??1?$unique_ptr@VWorld@@U?$default_delete@VWorld@@@std@@@std@@QEAA@XZ+61
	DD	00H
	DD	imagerel ??1?$unique_ptr@VWorld@@U?$default_delete@VWorld@@@std@@@std@@QEAA@XZ+109
	DD	0ffffffffH
xdata	ENDS
;	COMDAT xdata
xdata	SEGMENT
$stateUnwindMap$??1?$unique_ptr@VWorld@@U?$default_delete@VWorld@@@std@@@std@@QEAA@XZ DD 0ffffffffH
	DD	imagerel __std_terminate
xdata	ENDS
;	COMDAT CONST
CONST	SEGMENT
$cppxdata$??1?$unique_ptr@VWorld@@U?$default_delete@VWorld@@@std@@@std@@QEAA@XZ DQ 00000000119930522r ; 2.33398e-314
	DD	imagerel $stateUnwindMap$??1?$unique_ptr@VWorld@@U?$default_delete@VWorld@@@std@@@std@@QEAA@XZ
	DQ	00000000000000000r		; 0
	DD	02H
	DD	imagerel $ip2state$??1?$unique_ptr@VWorld@@U?$default_delete@VWorld@@@std@@@std@@QEAA@XZ
	DQ	00000000000000020r		; 1.58101e-322
	DD	05H
CONST	ENDS
;	COMDAT xdata
xdata	SEGMENT
$unwind$??1?$unique_ptr@VWorld@@U?$default_delete@VWorld@@@std@@@std@@QEAA@XZ DD 020f19H
	DD	030025206H
	DD	imagerel __CxxFrameHandler3
	DD	imagerel $cppxdata$??1?$unique_ptr@VWorld@@U?$default_delete@VWorld@@@std@@@std@@QEAA@XZ
xdata	ENDS
;	COMDAT xdata
xdata	SEGMENT
$ip2state$??4?$unique_ptr@VWorld@@U?$default_delete@VWorld@@@std@@@std@@QEAAAEAV01@$$QEAV01@@Z DD imagerel ??4?$unique_ptr@VWorld@@U?$default_delete@VWorld@@@std@@@std@@QEAAAEAV01@$$QEAV01@@Z+103
	DD	00H
	DD	imagerel ??4?$unique_ptr@VWorld@@U?$default_delete@VWorld@@@std@@@std@@QEAAAEAV01@$$QEAV01@@Z+151
	DD	0ffffffffH
xdata	ENDS
;	COMDAT xdata
xdata	SEGMENT
$stateUnwindMap$??4?$unique_ptr@VWorld@@U?$default_delete@VWorld@@@std@@@std@@QEAAAEAV01@$$QEAV01@@Z DD 0ffffffffH
	DD	imagerel __std_terminate
xdata	ENDS
;	COMDAT CONST
CONST	SEGMENT
$cppxdata$??4?$unique_ptr@VWorld@@U?$default_delete@VWorld@@@std@@@std@@QEAAAEAV01@$$QEAV01@@Z DQ 00000000119930522r ; 2.33398e-314
	DD	imagerel $stateUnwindMap$??4?$unique_ptr@VWorld@@U?$default_delete@VWorld@@@std@@@std@@QEAAAEAV01@$$QEAV01@@Z
	DQ	00000000000000000r		; 0
	DD	02H
	DD	imagerel $ip2state$??4?$unique_ptr@VWorld@@U?$default_delete@VWorld@@@std@@@std@@QEAAAEAV01@$$QEAV01@@Z
	DQ	00000000000000020r		; 1.58101e-322
	DD	05H
CONST	ENDS
;	COMDAT xdata
xdata	SEGMENT
$unwind$??4?$unique_ptr@VWorld@@U?$default_delete@VWorld@@@std@@@std@@QEAAAEAV01@$$QEAV01@@Z DD 041419H
	DD	083414H
	DD	070025206H
	DD	imagerel __CxxFrameHandler3
	DD	imagerel $cppxdata$??4?$unique_ptr@VWorld@@U?$default_delete@VWorld@@@std@@@std@@QEAAAEAV01@$$QEAV01@@Z
xdata	ENDS
;	COMDAT xdata
xdata	SEGMENT
$unwind$??1?$vector@EV?$allocator@E@std@@@std@@QEAA@XZ DD 010401H
	DD	04204H
xdata	ENDS
;	COMDAT xdata
xdata	SEGMENT
$chain$1$??0?$vector@EV?$allocator@E@std@@@std@@QEAA@_KAEBV?$allocator@E@1@@Z DD 021H
	DD	imagerel $LN121@vector
	DD	imagerel $LN121@vector+61
	DD	imagerel $unwind$??0?$vector@EV?$allocator@E@std@@@std@@QEAA@_KAEBV?$allocator@E@1@@Z
xdata	ENDS
;	COMDAT xdata
xdata	SEGMENT
$chain$0$??0?$vector@EV?$allocator@E@std@@@std@@QEAA@_KAEBV?$allocator@E@1@@Z DD 020521H
	DD	063405H
	DD	imagerel $LN121@vector
	DD	imagerel $LN121@vector+61
	DD	imagerel $unwind$??0?$vector@EV?$allocator@E@std@@@std@@QEAA@_KAEBV?$allocator@E@1@@Z
xdata	ENDS
;	COMDAT xdata
xdata	SEGMENT
$unwind$??0?$vector@EV?$allocator@E@std@@@std@@QEAA@_KAEBV?$allocator@E@1@@Z DD 011319H
	DD	06204H
	DD	imagerel __GSHandlerCheck
	DD	020H
xdata	ENDS
;	COMDAT xdata
xdata	SEGMENT
$unwind$?resize@?$vector@VVertex@sf@@V?$allocator@VVertex@sf@@@std@@@std@@QEAAX_K@Z DD 040a01H
	DD	06340aH
	DD	07006320aH
xdata	ENDS
;	COMDAT xdata
xdata	SEGMENT
$unwind$??1?$vector@VVertex@sf@@V?$allocator@VVertex@sf@@@std@@@std@@QEAA@XZ DD 010401H
	DD	04204H
xdata	ENDS
;	COMDAT xdata
xdata	SEGMENT
$unwind$??0?$basic_string@DU?$char_traits@D@std@@V?$allocator@D@2@@std@@QEAA@QEBD@Z DD 020601H
	DD	030023206H
xdata	ENDS
;	COMDAT xdata
xdata	SEGMENT
$unwind$??R?$default_delete@VTexture@sf@@@std@@QEBAXPEAVTexture@sf@@@Z DD 020a01H
	DD	03006320aH
xdata	ENDS
;	COMDAT xdata
xdata	SEGMENT
$ip2state$?reset@?$unique_ptr@VWorld@@U?$default_delete@VWorld@@@std@@@std@@QEAAXPEAVWorld@@@Z DD imagerel ?reset@?$unique_ptr@VWorld@@U?$default_delete@VWorld@@@std@@@std@@QEAAXPEAVWorld@@@Z+72
	DD	00H
	DD	imagerel ?reset@?$unique_ptr@VWorld@@U?$default_delete@VWorld@@@std@@@std@@QEAAXPEAVWorld@@@Z+120
	DD	0ffffffffH
xdata	ENDS
;	COMDAT xdata
xdata	SEGMENT
$stateUnwindMap$?reset@?$unique_ptr@VWorld@@U?$default_delete@VWorld@@@std@@@std@@QEAAXPEAVWorld@@@Z DD 0ffffffffH
	DD	imagerel __std_terminate
xdata	ENDS
;	COMDAT CONST
CONST	SEGMENT
$cppxdata$?reset@?$unique_ptr@VWorld@@U?$default_delete@VWorld@@@std@@@std@@QEAAXPEAVWorld@@@Z DQ 00000000119930522r ; 2.33398e-314
	DD	imagerel $stateUnwindMap$?reset@?$unique_ptr@VWorld@@U?$default_delete@VWorld@@@std@@@std@@QEAAXPEAVWorld@@@Z
	DQ	00000000000000000r		; 0
	DD	02H
	DD	imagerel $ip2state$?reset@?$unique_ptr@VWorld@@U?$default_delete@VWorld@@@std@@@std@@QEAAXPEAVWorld@@@Z
	DQ	00000000000000020r		; 1.58101e-322
	DD	05H
CONST	ENDS
;	COMDAT xdata
xdata	SEGMENT
$unwind$?reset@?$unique_ptr@VWorld@@U?$default_delete@VWorld@@@std@@@std@@QEAAXPEAVWorld@@@Z DD 020f19H
	DD	030025206H
	DD	imagerel __CxxFrameHandler3
	DD	imagerel $cppxdata$?reset@?$unique_ptr@VWorld@@U?$default_delete@VWorld@@@std@@@std@@QEAAXPEAVWorld@@@Z
xdata	ENDS
;	COMDAT xdata
xdata	SEGMENT
$ip2state$??R?$default_delete@VWorld@@@std@@QEBAXPEAVWorld@@@Z DD imagerel ??R?$default_delete@VWorld@@@std@@QEBAXPEAVWorld@@@Z+60
	DD	00H
	DD	imagerel ??R?$default_delete@VWorld@@@std@@QEBAXPEAVWorld@@@Z+108
	DD	0ffffffffH
xdata	ENDS
;	COMDAT xdata
xdata	SEGMENT
$stateUnwindMap$??R?$default_delete@VWorld@@@std@@QEBAXPEAVWorld@@@Z DD 0ffffffffH
	DD	imagerel __std_terminate
xdata	ENDS
;	COMDAT CONST
CONST	SEGMENT
$cppxdata$??R?$default_delete@VWorld@@@std@@QEBAXPEAVWorld@@@Z DQ 00000000119930522r ; 2.33398e-314
	DD	imagerel $stateUnwindMap$??R?$default_delete@VWorld@@@std@@QEBAXPEAVWorld@@@Z
	DQ	00000000000000000r		; 0
	DD	02H
	DD	imagerel $ip2state$??R?$default_delete@VWorld@@@std@@QEBAXPEAVWorld@@@Z
	DQ	00000000000000020r		; 1.58101e-322
	DD	05H
CONST	ENDS
;	COMDAT xdata
xdata	SEGMENT
$unwind$??R?$default_delete@VWorld@@@std@@QEBAXPEAVWorld@@@Z DD 021319H
	DD	03006520aH
	DD	imagerel __CxxFrameHandler3
	DD	imagerel $cppxdata$??R?$default_delete@VWorld@@@std@@QEBAXPEAVWorld@@@Z
xdata	ENDS
;	COMDAT xdata
xdata	SEGMENT
$unwind$?_Tidy@?$vector@EV?$allocator@E@std@@@std@@AEAAXXZ DD 020601H
	DD	030023206H
xdata	ENDS
;	COMDAT xdata
xdata	SEGMENT
$unwind$?_Tidy@?$vector@VVertex@sf@@V?$allocator@VVertex@sf@@@std@@@std@@AEAAXXZ DD 010401H
	DD	04204H
xdata	ENDS
;	COMDAT xdata
xdata	SEGMENT
$chain$3$?assign@?$basic_string@DU?$char_traits@D@std@@V?$allocator@D@2@@std@@QEAAAEAV12@QEBD_K@Z DD 021H
	DD	imagerel $LN134@assign
	DD	imagerel $LN134@assign+145
	DD	imagerel $unwind$?assign@?$basic_string@DU?$char_traits@D@std@@V?$allocator@D@2@@std@@QEAAAEAV12@QEBD_K@Z
xdata	ENDS
;	COMDAT xdata
xdata	SEGMENT
$chain$2$?assign@?$basic_string@DU?$char_traits@D@std@@V?$allocator@D@2@@std@@QEAAAEAV12@QEBD_K@Z DD 020021H
	DD	095400H
	DD	imagerel $LN134@assign
	DD	imagerel $LN134@assign+145
	DD	imagerel $unwind$?assign@?$basic_string@DU?$char_traits@D@std@@V?$allocator@D@2@@std@@QEAAAEAV12@QEBD_K@Z
xdata	ENDS
;	COMDAT xdata
xdata	SEGMENT
$chain$0$?assign@?$basic_string@DU?$char_traits@D@std@@V?$allocator@D@2@@std@@QEAAAEAV12@QEBD_K@Z DD 020521H
	DD	095405H
	DD	imagerel $LN134@assign
	DD	imagerel $LN134@assign+145
	DD	imagerel $unwind$?assign@?$basic_string@DU?$char_traits@D@std@@V?$allocator@D@2@@std@@QEAAAEAV12@QEBD_K@Z
xdata	ENDS
;	COMDAT xdata
xdata	SEGMENT
$unwind$?assign@?$basic_string@DU?$char_traits@D@std@@V?$allocator@D@2@@std@@QEAAAEAV12@QEBD_K@Z DD 060d01H
	DD	0b340dH
	DD	0e009320dH
	DD	060067007H
xdata	ENDS
;	COMDAT xdata
xdata	SEGMENT
$unwind$??R<lambda_1>@?1??assign@?$basic_string@DU?$char_traits@D@std@@V?$allocator@D@2@@std@@QEAAAEAV23@QEBD_K@Z@QEBAXQEAD10@Z DD 040a01H
	DD	06340aH
	DD	07006320aH
xdata	ENDS
;	COMDAT xdata
xdata	SEGMENT
$unwind$??_GTexture@sf@@QEAAPEAXI@Z DD 020601H
	DD	030023206H
xdata	ENDS
;	COMDAT xdata
xdata	SEGMENT
$ip2state$??_GWorld@@QEAAPEAXI@Z DD imagerel ??_GWorld@@QEAAPEAXI@Z+56
	DD	00H
	DD	imagerel ??_GWorld@@QEAAPEAXI@Z+104
	DD	0ffffffffH
xdata	ENDS
;	COMDAT xdata
xdata	SEGMENT
$stateUnwindMap$??_GWorld@@QEAAPEAXI@Z DD 0ffffffffH
	DD	imagerel __std_terminate
xdata	ENDS
;	COMDAT CONST
CONST	SEGMENT
$cppxdata$??_GWorld@@QEAAPEAXI@Z DQ 00000000119930522r ; 2.33398e-314
	DD	imagerel $stateUnwindMap$??_GWorld@@QEAAPEAXI@Z
	DQ	00000000000000000r		; 0
	DD	02H
	DD	imagerel $ip2state$??_GWorld@@QEAAPEAXI@Z
	DQ	00000000000000020r		; 1.58101e-322
	DD	05H
CONST	ENDS
;	COMDAT xdata
xdata	SEGMENT
$unwind$??_GWorld@@QEAAPEAXI@Z DD 020f19H
	DD	030025206H
	DD	imagerel __CxxFrameHandler3
	DD	imagerel $cppxdata$??_GWorld@@QEAAPEAXI@Z
xdata	ENDS
;	COMDAT xdata
xdata	SEGMENT
$ip2state$??1World@@QEAA@XZ DD imagerel ??1World@@QEAA@XZ+56
	DD	00H
	DD	imagerel ??1World@@QEAA@XZ+104
	DD	0ffffffffH
xdata	ENDS
;	COMDAT xdata
xdata	SEGMENT
$stateUnwindMap$??1World@@QEAA@XZ DD 0ffffffffH
	DD	imagerel __std_terminate
xdata	ENDS
;	COMDAT CONST
CONST	SEGMENT
$cppxdata$??1World@@QEAA@XZ DQ 00000000119930522r ; 2.33398e-314
	DD	imagerel $stateUnwindMap$??1World@@QEAA@XZ
	DQ	00000000000000000r		; 0
	DD	02H
	DD	imagerel $ip2state$??1World@@QEAA@XZ
	DQ	00000000000000020r		; 1.58101e-322
	DD	05H
CONST	ENDS
;	COMDAT xdata
xdata	SEGMENT
$unwind$??1World@@QEAA@XZ DD 020f19H
	DD	030025206H
	DD	imagerel __CxxFrameHandler3
	DD	imagerel $cppxdata$??1World@@QEAA@XZ
xdata	ENDS
;	COMDAT xdata
xdata	SEGMENT
$ip2state$??1?$array@VColonyController@@$04@std@@QEAA@XZ DD imagerel ??1?$array@VColonyController@@$04@std@@QEAA@XZ+31
	DD	0ffffffffH
xdata	ENDS
;	COMDAT CONST
CONST	SEGMENT
$cppxdata$??1?$array@VColonyController@@$04@std@@QEAA@XZ DQ 00000000019930522r ; 2.11987e-315
	DQ	00000000000000000r		; 0
	DQ	00000000100000000r		; 2.122e-314
	DD	imagerel $ip2state$??1?$array@VColonyController@@$04@std@@QEAA@XZ
	DQ	00000000000000020r		; 1.58101e-322
	DD	05H
CONST	ENDS
;	COMDAT xdata
xdata	SEGMENT
$unwind$??1?$array@VColonyController@@$04@std@@QEAA@XZ DD 010d19H
	DD	06204H
	DD	imagerel __CxxFrameHandler3
	DD	imagerel $cppxdata$??1?$array@VColonyController@@$04@std@@QEAA@XZ
xdata	ENDS
;	COMDAT xdata
xdata	SEGMENT
$ip2state$??1ColonyController@@QEAA@XZ DD imagerel ??1ColonyController@@QEAA@XZ+41
	DD	00H
	DD	imagerel ??1ColonyController@@QEAA@XZ+134
	DD	0ffffffffH
xdata	ENDS
;	COMDAT xdata
xdata	SEGMENT
$stateUnwindMap$??1ColonyController@@QEAA@XZ DD 0ffffffffH
	DD	imagerel __std_terminate
xdata	ENDS
;	COMDAT CONST
CONST	SEGMENT
$cppxdata$??1ColonyController@@QEAA@XZ DQ 00000000119930522r ; 2.33398e-314
	DD	imagerel $stateUnwindMap$??1ColonyController@@QEAA@XZ
	DQ	00000000000000000r		; 0
	DD	02H
	DD	imagerel $ip2state$??1ColonyController@@QEAA@XZ
	DQ	00000000000000020r		; 1.58101e-322
	DD	05H
CONST	ENDS
;	COMDAT xdata
xdata	SEGMENT
$unwind$??1ColonyController@@QEAA@XZ DD 020f19H
	DD	030025206H
	DD	imagerel __CxxFrameHandler3
	DD	imagerel $cppxdata$??1ColonyController@@QEAA@XZ
xdata	ENDS
;	COMDAT xdata
xdata	SEGMENT
$unwind$?deallocate@?$allocator@VVertex@sf@@@std@@QEAAXQEAVVertex@sf@@_K@Z DD 010401H
	DD	04204H
xdata	ENDS
;	COMDAT xdata
xdata	SEGMENT
$unwind$?deallocate@?$allocator@E@std@@QEAAXQEAE_K@Z DD 010401H
	DD	04204H
xdata	ENDS
;	COMDAT xdata
xdata	SEGMENT
$unwind$?_Tidy@?$vector@V?$vector@MV?$allocator@M@std@@@std@@V?$allocator@V?$vector@MV?$allocator@M@std@@@std@@@2@@std@@AEAAXXZ DD 020601H
	DD	030023206H
xdata	ENDS
;	COMDAT xdata
xdata	SEGMENT
$unwind$?_Tidy@?$vector@VChunk@@V?$allocator@VChunk@@@std@@@std@@AEAAXXZ DD 020601H
	DD	030023206H
xdata	ENDS
;	COMDAT xdata
xdata	SEGMENT
$unwind$?deallocate@?$allocator@V?$vector@MV?$allocator@M@std@@@std@@@std@@QEAAXQEAV?$vector@MV?$allocator@M@std@@@2@_K@Z DD 010401H
	DD	04204H
xdata	ENDS
;	COMDAT xdata
xdata	SEGMENT
$unwind$?deallocate@?$allocator@VChunk@@@std@@QEAAXQEAVChunk@@_K@Z DD 010401H
	DD	04204H
xdata	ENDS
;	COMDAT xdata
xdata	SEGMENT
$unwind$?dtor$0@?0???$make_unique@VTexture@sf@@$$V$0A@@std@@YA?AV?$unique_ptr@VTexture@sf@@U?$default_delete@VTexture@sf@@@std@@@0@XZ@4HA DD 020601H
	DD	050023206H
xdata	ENDS
;	COMDAT xdata
xdata	SEGMENT
$ip2state$??$make_unique@VTexture@sf@@$$V$0A@@std@@YA?AV?$unique_ptr@VTexture@sf@@U?$default_delete@VTexture@sf@@@std@@@0@XZ DD imagerel ??$make_unique@VTexture@sf@@$$V$0A@@std@@YA?AV?$unique_ptr@VTexture@sf@@U?$default_delete@VTexture@sf@@@std@@@0@XZ+27
	DD	0ffffffffH
	DD	imagerel ??$make_unique@VTexture@sf@@$$V$0A@@std@@YA?AV?$unique_ptr@VTexture@sf@@U?$default_delete@VTexture@sf@@@std@@@0@XZ+40
	DD	00H
xdata	ENDS
;	COMDAT xdata
xdata	SEGMENT
$stateUnwindMap$??$make_unique@VTexture@sf@@$$V$0A@@std@@YA?AV?$unique_ptr@VTexture@sf@@U?$default_delete@VTexture@sf@@@std@@@0@XZ DD 0ffffffffH
	DD	imagerel ?dtor$0@?0???$make_unique@VTexture@sf@@$$V$0A@@std@@YA?AV?$unique_ptr@VTexture@sf@@U?$default_delete@VTexture@sf@@@std@@@0@XZ@4HA
xdata	ENDS
;	COMDAT CONST
CONST	SEGMENT
$cppxdata$??$make_unique@VTexture@sf@@$$V$0A@@std@@YA?AV?$unique_ptr@VTexture@sf@@U?$default_delete@VTexture@sf@@@std@@@0@XZ DQ 00000000119930522r ; 2.33398e-314
	DD	imagerel $stateUnwindMap$??$make_unique@VTexture@sf@@$$V$0A@@std@@YA?AV?$unique_ptr@VTexture@sf@@U?$default_delete@VTexture@sf@@@std@@@0@XZ
	DQ	00000000000000000r		; 0
	DD	02H
	DD	imagerel $ip2state$??$make_unique@VTexture@sf@@$$V$0A@@std@@YA?AV?$unique_ptr@VTexture@sf@@U?$default_delete@VTexture@sf@@@std@@@0@XZ
	DQ	00000000000000028r		; 1.97626e-322
	DD	01H
CONST	ENDS
;	COMDAT xdata
xdata	SEGMENT
$unwind$??$make_unique@VTexture@sf@@$$V$0A@@std@@YA?AV?$unique_ptr@VTexture@sf@@U?$default_delete@VTexture@sf@@@std@@@0@XZ DD 020f11H
	DD	030025206H
	DD	imagerel __CxxFrameHandler3
	DD	imagerel $cppxdata$??$make_unique@VTexture@sf@@$$V$0A@@std@@YA?AV?$unique_ptr@VTexture@sf@@U?$default_delete@VTexture@sf@@@std@@@0@XZ
xdata	ENDS
;	COMDAT xdata
xdata	SEGMENT
$unwind$?dtor$0@?0???$make_unique@VWorld@@$$V$0A@@std@@YA?AV?$unique_ptr@VWorld@@U?$default_delete@VWorld@@@std@@@0@XZ@4HA DD 020601H
	DD	050023206H
xdata	ENDS
;	COMDAT xdata
xdata	SEGMENT
$ip2state$??$make_unique@VWorld@@$$V$0A@@std@@YA?AV?$unique_ptr@VWorld@@U?$default_delete@VWorld@@@std@@@0@XZ DD imagerel ??$make_unique@VWorld@@$$V$0A@@std@@YA?AV?$unique_ptr@VWorld@@U?$default_delete@VWorld@@@std@@@0@XZ+33
	DD	0ffffffffH
	DD	imagerel ??$make_unique@VWorld@@$$V$0A@@std@@YA?AV?$unique_ptr@VWorld@@U?$default_delete@VWorld@@@std@@@0@XZ+65
	DD	00H
xdata	ENDS
;	COMDAT xdata
xdata	SEGMENT
$stateUnwindMap$??$make_unique@VWorld@@$$V$0A@@std@@YA?AV?$unique_ptr@VWorld@@U?$default_delete@VWorld@@@std@@@0@XZ DD 0ffffffffH
	DD	imagerel ?dtor$0@?0???$make_unique@VWorld@@$$V$0A@@std@@YA?AV?$unique_ptr@VWorld@@U?$default_delete@VWorld@@@std@@@0@XZ@4HA
xdata	ENDS
;	COMDAT CONST
CONST	SEGMENT
$cppxdata$??$make_unique@VWorld@@$$V$0A@@std@@YA?AV?$unique_ptr@VWorld@@U?$default_delete@VWorld@@@std@@@0@XZ DQ 00000000119930522r ; 2.33398e-314
	DD	imagerel $stateUnwindMap$??$make_unique@VWorld@@$$V$0A@@std@@YA?AV?$unique_ptr@VWorld@@U?$default_delete@VWorld@@@std@@@0@XZ
	DQ	00000000000000000r		; 0
	DD	02H
	DD	imagerel $ip2state$??$make_unique@VWorld@@$$V$0A@@std@@YA?AV?$unique_ptr@VWorld@@U?$default_delete@VWorld@@@std@@@0@XZ
	DQ	00000000000000028r		; 1.97626e-322
	DD	01H
CONST	ENDS
;	COMDAT xdata
xdata	SEGMENT
$unwind$??$make_unique@VWorld@@$$V$0A@@std@@YA?AV?$unique_ptr@VWorld@@U?$default_delete@VWorld@@@std@@@0@XZ DD 041411H
	DD	093414H
	DD	070025206H
	DD	imagerel __CxxFrameHandler3
	DD	imagerel $cppxdata$??$make_unique@VWorld@@$$V$0A@@std@@YA?AV?$unique_ptr@VWorld@@U?$default_delete@VWorld@@@std@@@0@XZ
xdata	ENDS
;	COMDAT xdata
xdata	SEGMENT
$unwind$?dtor$2@?0???$make_unique@VRenderWindow@sf@@VVideoMode@2@AEAY08$$CBD$0A@@std@@YA?AV?$unique_ptr@VRenderWindow@sf@@U?$default_delete@VRenderWindow@sf@@@std@@@0@$$QEAVVideoMode@sf@@AEAY08$$CBD@Z@4HA DD 020601H
	DD	050023206H
xdata	ENDS
;	COMDAT xdata
xdata	SEGMENT
$unwind$?dtor$1@?0???$make_unique@VRenderWindow@sf@@VVideoMode@2@AEAY08$$CBD$0A@@std@@YA?AV?$unique_ptr@VRenderWindow@sf@@U?$default_delete@VRenderWindow@sf@@@std@@@0@$$QEAVVideoMode@sf@@AEAY08$$CBD@Z@4HA DD 020601H
	DD	050023206H
xdata	ENDS
;	COMDAT xdata
xdata	SEGMENT
$unwind$?dtor$0@?0???$make_unique@VRenderWindow@sf@@VVideoMode@2@AEAY08$$CBD$0A@@std@@YA?AV?$unique_ptr@VRenderWindow@sf@@U?$default_delete@VRenderWindow@sf@@@std@@@0@$$QEAVVideoMode@sf@@AEAY08$$CBD@Z@4HA DD 020601H
	DD	050023206H
xdata	ENDS
;	COMDAT xdata
xdata	SEGMENT
$ip2state$??$make_unique@VRenderWindow@sf@@VVideoMode@2@AEAY08$$CBD$0A@@std@@YA?AV?$unique_ptr@VRenderWindow@sf@@U?$default_delete@VRenderWindow@sf@@@std@@@0@$$QEAVVideoMode@sf@@AEAY08$$CBD@Z DD imagerel ??$make_unique@VRenderWindow@sf@@VVideoMode@2@AEAY08$$CBD$0A@@std@@YA?AV?$unique_ptr@VRenderWindow@sf@@U?$default_delete@VRenderWindow@sf@@@std@@@0@$$QEAVVideoMode@sf@@AEAY08$$CBD@Z+47
	DD	0ffffffffH
	DD	imagerel ??$make_unique@VRenderWindow@sf@@VVideoMode@2@AEAY08$$CBD$0A@@std@@YA?AV?$unique_ptr@VRenderWindow@sf@@U?$default_delete@VRenderWindow@sf@@@std@@@0@$$QEAVVideoMode@sf@@AEAY08$$CBD@Z+93
	DD	01H
	DD	imagerel ??$make_unique@VRenderWindow@sf@@VVideoMode@2@AEAY08$$CBD$0A@@std@@YA?AV?$unique_ptr@VRenderWindow@sf@@U?$default_delete@VRenderWindow@sf@@@std@@@0@$$QEAVVideoMode@sf@@AEAY08$$CBD@Z+132
	DD	02H
	DD	imagerel ??$make_unique@VRenderWindow@sf@@VVideoMode@2@AEAY08$$CBD$0A@@std@@YA?AV?$unique_ptr@VRenderWindow@sf@@U?$default_delete@VRenderWindow@sf@@@std@@@0@$$QEAVVideoMode@sf@@AEAY08$$CBD@Z+194
	DD	03H
xdata	ENDS
;	COMDAT xdata
xdata	SEGMENT
$stateUnwindMap$??$make_unique@VRenderWindow@sf@@VVideoMode@2@AEAY08$$CBD$0A@@std@@YA?AV?$unique_ptr@VRenderWindow@sf@@U?$default_delete@VRenderWindow@sf@@@std@@@0@$$QEAVVideoMode@sf@@AEAY08$$CBD@Z DD 0ffffffffH
	DD	imagerel ?dtor$0@?0???$make_unique@VRenderWindow@sf@@VVideoMode@2@AEAY08$$CBD$0A@@std@@YA?AV?$unique_ptr@VRenderWindow@sf@@U?$default_delete@VRenderWindow@sf@@@std@@@0@$$QEAVVideoMode@sf@@AEAY08$$CBD@Z@4HA
	DD	00H
	DD	imagerel __std_terminate
	DD	00H
	DD	imagerel ?dtor$1@?0???$make_unique@VRenderWindow@sf@@VVideoMode@2@AEAY08$$CBD$0A@@std@@YA?AV?$unique_ptr@VRenderWindow@sf@@U?$default_delete@VRenderWindow@sf@@@std@@@0@$$QEAVVideoMode@sf@@AEAY08$$CBD@Z@4HA
	DD	02H
	DD	imagerel ?dtor$2@?0???$make_unique@VRenderWindow@sf@@VVideoMode@2@AEAY08$$CBD$0A@@std@@YA?AV?$unique_ptr@VRenderWindow@sf@@U?$default_delete@VRenderWindow@sf@@@std@@@0@$$QEAVVideoMode@sf@@AEAY08$$CBD@Z@4HA
	DD	0ffffffffH
	DD	imagerel ?dtor$1@?0???$make_unique@VRenderWindow@sf@@VVideoMode@2@AEAY08$$CBD$0A@@std@@YA?AV?$unique_ptr@VRenderWindow@sf@@U?$default_delete@VRenderWindow@sf@@@std@@@0@$$QEAVVideoMode@sf@@AEAY08$$CBD@Z@4HA
	DD	04H
	DD	imagerel ?dtor$2@?0???$make_unique@VRenderWindow@sf@@VVideoMode@2@AEAY08$$CBD$0A@@std@@YA?AV?$unique_ptr@VRenderWindow@sf@@U?$default_delete@VRenderWindow@sf@@@std@@@0@$$QEAVVideoMode@sf@@AEAY08$$CBD@Z@4HA
xdata	ENDS
;	COMDAT CONST
CONST	SEGMENT
$cppxdata$??$make_unique@VRenderWindow@sf@@VVideoMode@2@AEAY08$$CBD$0A@@std@@YA?AV?$unique_ptr@VRenderWindow@sf@@U?$default_delete@VRenderWindow@sf@@@std@@@0@$$QEAVVideoMode@sf@@AEAY08$$CBD@Z DQ 00000000619930522r ; 1.2944e-313
	DD	imagerel $stateUnwindMap$??$make_unique@VRenderWindow@sf@@VVideoMode@2@AEAY08$$CBD$0A@@std@@YA?AV?$unique_ptr@VRenderWindow@sf@@U?$default_delete@VRenderWindow@sf@@@std@@@0@$$QEAVVideoMode@sf@@AEAY08$$CBD@Z
	DQ	00000000000000000r		; 0
	DD	04H
	DD	imagerel $ip2state$??$make_unique@VRenderWindow@sf@@VVideoMode@2@AEAY08$$CBD$0A@@std@@YA?AV?$unique_ptr@VRenderWindow@sf@@U?$default_delete@VRenderWindow@sf@@@std@@@0@$$QEAVVideoMode@sf@@AEAY08$$CBD@Z
	DQ	00000000000000080r		; 6.32404e-322
	DD	01H
CONST	ENDS
;	COMDAT xdata
xdata	SEGMENT
$unwind$??$make_unique@VRenderWindow@sf@@VVideoMode@2@AEAY08$$CBD$0A@@std@@YA?AV?$unique_ptr@VRenderWindow@sf@@U?$default_delete@VRenderWindow@sf@@@std@@@0@$$QEAVVideoMode@sf@@AEAY08$$CBD@Z DD 071911H
	DD	01c3419H
	DD	016010dH
	DD	060057006H
	DD	05004H
	DD	imagerel __CxxFrameHandler3
	DD	imagerel $cppxdata$??$make_unique@VRenderWindow@sf@@VVideoMode@2@AEAY08$$CBD$0A@@std@@YA?AV?$unique_ptr@VRenderWindow@sf@@U?$default_delete@VRenderWindow@sf@@@std@@@0@$$QEAVVideoMode@sf@@AEAY08$$CBD@Z
xdata	ENDS
;	COMDAT xdata
xdata	SEGMENT
$chain$1$??$_Construct_n_copies_of_ty@U_Value_init_tag@std@@@?$vector@EV?$allocator@E@std@@@std@@AEAAX_KAEBU_Value_init_tag@1@@Z DD 021H
	DD	imagerel $LN112@Construct_
	DD	imagerel $LN112@Construct_+23
	DD	imagerel $unwind$??$_Construct_n_copies_of_ty@U_Value_init_tag@std@@@?$vector@EV?$allocator@E@std@@@std@@AEAAX_KAEBU_Value_init_tag@1@@Z
xdata	ENDS
;	COMDAT xdata
xdata	SEGMENT
$chain$0$??$_Construct_n_copies_of_ty@U_Value_init_tag@std@@@?$vector@EV?$allocator@E@std@@@std@@AEAAX_KAEBU_Value_init_tag@1@@Z DD 020521H
	DD	043405H
	DD	imagerel $LN112@Construct_
	DD	imagerel $LN112@Construct_+23
	DD	imagerel $unwind$??$_Construct_n_copies_of_ty@U_Value_init_tag@std@@@?$vector@EV?$allocator@E@std@@@std@@AEAAX_KAEBU_Value_init_tag@1@@Z
xdata	ENDS
;	COMDAT xdata
xdata	SEGMENT
$unwind$??$_Construct_n_copies_of_ty@U_Value_init_tag@std@@@?$vector@EV?$allocator@E@std@@@std@@AEAAX_KAEBU_Value_init_tag@1@@Z DD 010401H
	DD	04204H
xdata	ENDS
;	COMDAT xdata
xdata	SEGMENT
$unwind$??$_Resize@U_Value_init_tag@std@@@?$vector@VVertex@sf@@V?$allocator@VVertex@sf@@@std@@@std@@AEAAX_KAEBU_Value_init_tag@1@@Z DD 040a01H
	DD	06340aH
	DD	07006320aH
xdata	ENDS
;	COMDAT xdata
xdata	SEGMENT
$chain$4$??$_Reallocate_for@V<lambda_1>@?1??assign@?$basic_string@DU?$char_traits@D@std@@V?$allocator@D@2@@std@@QEAAAEAV34@QEBD_K@Z@PEBD@?$basic_string@DU?$char_traits@D@std@@V?$allocator@D@2@@std@@AEAAAEAV01@_KV<lambda_1>@?1??assign@01@QEAAAEAV01@QEBD0@Z@PEBD@Z DD 021H
	DD	imagerel $LN117@Reallocate
	DD	imagerel $LN117@Reallocate+34
	DD	imagerel $unwind$??$_Reallocate_for@V<lambda_1>@?1??assign@?$basic_string@DU?$char_traits@D@std@@V?$allocator@D@2@@std@@QEAAAEAV34@QEBD_K@Z@PEBD@?$basic_string@DU?$char_traits@D@std@@V?$allocator@D@2@@std@@AEAAAEAV01@_KV<lambda_1>@?1??assign@01@QEAAAEAV01@QEBD0@Z@PEBD@Z
xdata	ENDS
;	COMDAT xdata
xdata	SEGMENT
$chain$3$??$_Reallocate_for@V<lambda_1>@?1??assign@?$basic_string@DU?$char_traits@D@std@@V?$allocator@D@2@@std@@QEAAAEAV34@QEBD_K@Z@PEBD@?$basic_string@DU?$char_traits@D@std@@V?$allocator@D@2@@std@@AEAAAEAV01@_KV<lambda_1>@?1??assign@01@QEAAAEAV01@QEBD0@Z@PEBD@Z DD 040021H
	DD	0b7400H
	DD	0a5400H
	DD	imagerel $LN117@Reallocate
	DD	imagerel $LN117@Reallocate+34
	DD	imagerel $unwind$??$_Reallocate_for@V<lambda_1>@?1??assign@?$basic_string@DU?$char_traits@D@std@@V?$allocator@D@2@@std@@QEAAAEAV34@QEBD_K@Z@PEBD@?$basic_string@DU?$char_traits@D@std@@V?$allocator@D@2@@std@@AEAAAEAV01@_KV<lambda_1>@?1??assign@01@QEAAAEAV01@QEBD0@Z@PEBD@Z
xdata	ENDS
;	COMDAT xdata
xdata	SEGMENT
$chain$1$??$_Reallocate_for@V<lambda_1>@?1??assign@?$basic_string@DU?$char_traits@D@std@@V?$allocator@D@2@@std@@QEAAAEAV34@QEBD_K@Z@PEBD@?$basic_string@DU?$char_traits@D@std@@V?$allocator@D@2@@std@@AEAAAEAV01@_KV<lambda_1>@?1??assign@01@QEAAAEAV01@QEBD0@Z@PEBD@Z DD 043c21H
	DD	0b743cH
	DD	0a5405H
	DD	imagerel $LN117@Reallocate
	DD	imagerel $LN117@Reallocate+34
	DD	imagerel $unwind$??$_Reallocate_for@V<lambda_1>@?1??assign@?$basic_string@DU?$char_traits@D@std@@V?$allocator@D@2@@std@@QEAAAEAV34@QEBD_K@Z@PEBD@?$basic_string@DU?$char_traits@D@std@@V?$allocator@D@2@@std@@AEAAAEAV01@_KV<lambda_1>@?1??assign@01@QEAAAEAV01@QEBD0@Z@PEBD@Z
xdata	ENDS
;	COMDAT xdata
xdata	SEGMENT
$unwind$??$_Reallocate_for@V<lambda_1>@?1??assign@?$basic_string@DU?$char_traits@D@std@@V?$allocator@D@2@@std@@QEAAAEAV34@QEBD_K@Z@PEBD@?$basic_string@DU?$char_traits@D@std@@V?$allocator@D@2@@std@@AEAAAEAV01@_KV<lambda_1>@?1??assign@01@QEAAAEAV01@QEBD0@Z@PEBD@Z DD 040901H
	DD	0e0053209H
	DD	030026003H
xdata	ENDS
;	COMDAT xdata
xdata	SEGMENT
$chain$2$??$_Destroy_range@V?$allocator@V?$vector@MV?$allocator@M@std@@@std@@@std@@@std@@YAXPEAV?$vector@MV?$allocator@M@std@@@0@QEAV10@AEAV?$allocator@V?$vector@MV?$allocator@M@std@@@std@@@0@@Z DD 020021H
	DD	076400H
	DD	imagerel $LN64@Destroy_ra
	DD	imagerel $LN64@Destroy_ra+15
	DD	imagerel $unwind$??$_Destroy_range@V?$allocator@V?$vector@MV?$allocator@M@std@@@std@@@std@@@std@@YAXPEAV?$vector@MV?$allocator@M@std@@@0@QEAV10@AEAV?$allocator@V?$vector@MV?$allocator@M@std@@@std@@@0@@Z
xdata	ENDS
;	COMDAT xdata
xdata	SEGMENT
$chain$1$??$_Destroy_range@V?$allocator@V?$vector@MV?$allocator@M@std@@@std@@@std@@@std@@YAXPEAV?$vector@MV?$allocator@M@std@@@0@QEAV10@AEAV?$allocator@V?$vector@MV?$allocator@M@std@@@std@@@0@@Z DD 021H
	DD	imagerel $LN64@Destroy_ra
	DD	imagerel $LN64@Destroy_ra+15
	DD	imagerel $unwind$??$_Destroy_range@V?$allocator@V?$vector@MV?$allocator@M@std@@@std@@@std@@@std@@YAXPEAV?$vector@MV?$allocator@M@std@@@0@QEAV10@AEAV?$allocator@V?$vector@MV?$allocator@M@std@@@std@@@0@@Z
xdata	ENDS
;	COMDAT xdata
xdata	SEGMENT
$chain$0$??$_Destroy_range@V?$allocator@V?$vector@MV?$allocator@M@std@@@std@@@std@@@std@@YAXPEAV?$vector@MV?$allocator@M@std@@@0@QEAV10@AEAV?$allocator@V?$vector@MV?$allocator@M@std@@@std@@@0@@Z DD 020521H
	DD	076405H
	DD	imagerel $LN64@Destroy_ra
	DD	imagerel $LN64@Destroy_ra+15
	DD	imagerel $unwind$??$_Destroy_range@V?$allocator@V?$vector@MV?$allocator@M@std@@@std@@@std@@@std@@YAXPEAV?$vector@MV?$allocator@M@std@@@0@QEAV10@AEAV?$allocator@V?$vector@MV?$allocator@M@std@@@std@@@0@@Z
xdata	ENDS
;	COMDAT xdata
xdata	SEGMENT
$unwind$??$_Destroy_range@V?$allocator@V?$vector@MV?$allocator@M@std@@@std@@@std@@@std@@YAXPEAV?$vector@MV?$allocator@M@std@@@0@QEAV10@AEAV?$allocator@V?$vector@MV?$allocator@M@std@@@std@@@0@@Z DD 040f01H
	DD	08340fH
	DD	0700b320fH
xdata	ENDS
;	COMDAT xdata
xdata	SEGMENT
$unwind$??_GRenderWindow@sf@@UEAAPEAXI@Z DD 040a01H
	DD	06340aH
	DD	07006320aH
xdata	ENDS
;	COMDAT xdata
xdata	SEGMENT
$unwind$??1?$_Tidy_guard@V?$vector@EV?$allocator@E@std@@@std@@@std@@QEAA@XZ DD 020601H
	DD	030023206H
xdata	ENDS
;	COMDAT xdata
xdata	SEGMENT
$unwind$?_Buy_nonzero@?$vector@EV?$allocator@E@std@@@std@@AEAAX_K@Z DD 010401H
	DD	04204H
xdata	ENDS
;	COMDAT xdata
xdata	SEGMENT
$unwind$?_Ufill@?$vector@EV?$allocator@E@std@@@std@@AEAAPEAEPEAE_KU_Value_init_tag@2@@Z DD 020601H
	DD	030023206H
xdata	ENDS
;	COMDAT xdata
xdata	SEGMENT
$unwind$?_Ufill@?$vector@VVertex@sf@@V?$allocator@VVertex@sf@@@std@@@std@@AEAAPEAVVertex@sf@@PEAV34@_KU_Value_init_tag@2@@Z DD 040a01H
	DD	06340aH
	DD	07006320aH
xdata	ENDS
;	COMDAT xdata
xdata	SEGMENT
$unwind$?_Xlength@?$vector@EV?$allocator@E@std@@@std@@CAXXZ DD 010401H
	DD	04204H
xdata	ENDS
;	COMDAT xdata
xdata	SEGMENT
$unwind$?_Buy_raw@?$vector@EV?$allocator@E@std@@@std@@AEAAX_K@Z DD 010401H
	DD	04204H
xdata	ENDS
;	COMDAT xdata
xdata	SEGMENT
$unwind$?allocate@?$allocator@E@std@@QEAAPEAE_K@Z DD 010401H
	DD	04204H
xdata	ENDS
;	COMDAT xdata
xdata	SEGMENT
$unwind$?catch$0@?0???$_Resize_reallocate@U_Value_init_tag@std@@@?$vector@VVertex@sf@@V?$allocator@VVertex@sf@@@std@@@std@@AEAAX_KAEBU_Value_init_tag@1@@Z@4HA DD 020a19H
	DD	05006320aH
	DD	imagerel __CxxFrameHandler3
	DD	imagerel $cppxdata$??$_Resize_reallocate@U_Value_init_tag@std@@@?$vector@VVertex@sf@@V?$allocator@VVertex@sf@@@std@@@std@@AEAAX_KAEBU_Value_init_tag@1@@Z
xdata	ENDS
;	COMDAT xdata
xdata	SEGMENT
$ip2state$??$_Resize_reallocate@U_Value_init_tag@std@@@?$vector@VVertex@sf@@V?$allocator@VVertex@sf@@@std@@@std@@AEAAX_KAEBU_Value_init_tag@1@@Z DD imagerel ??$_Resize_reallocate@U_Value_init_tag@std@@@?$vector@VVertex@sf@@V?$allocator@VVertex@sf@@@std@@@std@@AEAAX_KAEBU_Value_init_tag@1@@Z+228
	DD	0ffffffffH
	DD	imagerel ??$_Resize_reallocate@U_Value_init_tag@std@@@?$vector@VVertex@sf@@V?$allocator@VVertex@sf@@@std@@@std@@AEAAX_KAEBU_Value_init_tag@1@@Z+289
	DD	00H
	DD	imagerel ??$_Resize_reallocate@U_Value_init_tag@std@@@?$vector@VVertex@sf@@V?$allocator@VVertex@sf@@@std@@@std@@AEAAX_KAEBU_Value_init_tag@1@@Z+379
	DD	0ffffffffH
	DD	imagerel ?catch$0@?0???$_Resize_reallocate@U_Value_init_tag@std@@@?$vector@VVertex@sf@@V?$allocator@VVertex@sf@@@std@@@std@@AEAAX_KAEBU_Value_init_tag@1@@Z@4HA+30
	DD	01H
xdata	ENDS
;	COMDAT xdata
xdata	SEGMENT
$handlerMap$0$??$_Resize_reallocate@U_Value_init_tag@std@@@?$vector@VVertex@sf@@V?$allocator@VVertex@sf@@@std@@@std@@AEAAX_KAEBU_Value_init_tag@1@@Z DD 040H
	DD	00H
	DD	00H
	DD	imagerel ?catch$0@?0???$_Resize_reallocate@U_Value_init_tag@std@@@?$vector@VVertex@sf@@V?$allocator@VVertex@sf@@@std@@@std@@AEAAX_KAEBU_Value_init_tag@1@@Z@4HA
	DD	038H
xdata	ENDS
;	COMDAT xdata
xdata	SEGMENT
$tryMap$??$_Resize_reallocate@U_Value_init_tag@std@@@?$vector@VVertex@sf@@V?$allocator@VVertex@sf@@@std@@@std@@AEAAX_KAEBU_Value_init_tag@1@@Z DD 00H
	DD	00H
	DD	01H
	DD	01H
	DD	imagerel $handlerMap$0$??$_Resize_reallocate@U_Value_init_tag@std@@@?$vector@VVertex@sf@@V?$allocator@VVertex@sf@@@std@@@std@@AEAAX_KAEBU_Value_init_tag@1@@Z
xdata	ENDS
;	COMDAT xdata
xdata	SEGMENT
$stateUnwindMap$??$_Resize_reallocate@U_Value_init_tag@std@@@?$vector@VVertex@sf@@V?$allocator@VVertex@sf@@@std@@@std@@AEAAX_KAEBU_Value_init_tag@1@@Z DD 0ffffffffH
	DD	00H
	DD	0ffffffffH
	DD	00H
xdata	ENDS
;	COMDAT CONST
CONST	SEGMENT
$cppxdata$??$_Resize_reallocate@U_Value_init_tag@std@@@?$vector@VVertex@sf@@V?$allocator@VVertex@sf@@@std@@@std@@AEAAX_KAEBU_Value_init_tag@1@@Z DQ 00000000219930522r ; 4.45598e-314
	DD	imagerel $stateUnwindMap$??$_Resize_reallocate@U_Value_init_tag@std@@@?$vector@VVertex@sf@@V?$allocator@VVertex@sf@@@std@@@std@@AEAAX_KAEBU_Value_init_tag@1@@Z
	DD	01H
	DD	imagerel $tryMap$??$_Resize_reallocate@U_Value_init_tag@std@@@?$vector@VVertex@sf@@V?$allocator@VVertex@sf@@@std@@@std@@AEAAX_KAEBU_Value_init_tag@1@@Z
	DD	04H
	DD	imagerel $ip2state$??$_Resize_reallocate@U_Value_init_tag@std@@@?$vector@VVertex@sf@@V?$allocator@VVertex@sf@@@std@@@std@@AEAAX_KAEBU_Value_init_tag@1@@Z
	DQ	00000000000000030r		; 2.37152e-322
	DD	01H
CONST	ENDS
;	COMDAT xdata
xdata	SEGMENT
$unwind$??$_Resize_reallocate@U_Value_init_tag@std@@@?$vector@VVertex@sf@@V?$allocator@VVertex@sf@@@std@@@std@@AEAAX_KAEBU_Value_init_tag@1@@Z DD 0a2419H
	DD	0106424H
	DD	0e341cH
	DD	0f00a720eH
	DD	0d006e008H
	DD	07002c004H
	DD	imagerel __CxxFrameHandler3
	DD	imagerel $cppxdata$??$_Resize_reallocate@U_Value_init_tag@std@@@?$vector@VVertex@sf@@V?$allocator@VVertex@sf@@@std@@@std@@AEAAX_KAEBU_Value_init_tag@1@@Z
xdata	ENDS
;	COMDAT xdata
xdata	SEGMENT
$unwind$??$destroy@V?$vector@MV?$allocator@M@std@@@std@@@?$_Default_allocator_traits@V?$allocator@V?$vector@MV?$allocator@M@std@@@std@@@std@@@std@@SAXAEAV?$allocator@V?$vector@MV?$allocator@M@std@@@std@@@1@QEAV?$vector@MV?$allocator@M@std@@@1@@Z DD 020601H
	DD	030023206H
xdata	ENDS
;	COMDAT xdata
xdata	SEGMENT
$unwind$??$_Uninitialized_value_construct_n@V?$allocator@E@std@@@std@@YAPEAEPEAE_KAEAV?$allocator@E@0@@Z DD 020601H
	DD	030023206H
xdata	ENDS
;	COMDAT xdata
xdata	SEGMENT
$unwind$??$_Uninitialized_value_construct_n@V?$allocator@VVertex@sf@@@std@@@std@@YAPEAVVertex@sf@@PEAV12@_KAEAV?$allocator@VVertex@sf@@@0@@Z DD 040a01H
	DD	06340aH
	DD	07006320aH
xdata	ENDS
;	COMDAT xdata
xdata	SEGMENT
$unwind$??_G?$vector@MV?$allocator@M@std@@@std@@QEAAPEAXI@Z DD 020601H
	DD	030023206H
xdata	ENDS
;	COMDAT xdata
xdata	SEGMENT
$unwind$?_Xlength@?$vector@VVertex@sf@@V?$allocator@VVertex@sf@@@std@@@std@@CAXXZ DD 010401H
	DD	04204H
xdata	ENDS
;	COMDAT xdata
xdata	SEGMENT
$unwind$?_Change_array@?$vector@VVertex@sf@@V?$allocator@VVertex@sf@@@std@@@std@@AEAAXQEAVVertex@sf@@_K1@Z DD 060f01H
	DD	07640fH
	DD	06340fH
	DD	0700b320fH
xdata	ENDS
;	COMDAT xdata
xdata	SEGMENT
$unwind$?_Umove_if_noexcept@?$vector@VVertex@sf@@V?$allocator@VVertex@sf@@@std@@@std@@AEAAXPEAVVertex@sf@@00@Z DD 011719H
	DD	02209H
	DD	imagerel __GSHandlerCheck
	DD	00H
xdata	ENDS
;	COMDAT xdata
xdata	SEGMENT
$unwind$?allocate@?$allocator@VVertex@sf@@@std@@QEAAPEAVVertex@sf@@_K@Z DD 010401H
	DD	04204H
xdata	ENDS
;	COMDAT xdata
xdata	SEGMENT
$unwind$??$_Zero_range@PEAE@std@@YAPEAEQEAE0@Z DD 020601H
	DD	030023206H
xdata	ENDS
;	COMDAT xdata
xdata	SEGMENT
$unwind$??$_Emplace_back@$$V@?$_Uninitialized_backout_al@V?$allocator@VVertex@sf@@@std@@@std@@QEAAXXZ DD 020601H
	DD	030023206H
CRT$XCU	SEGMENT
?window$initializer$@@3P6AXXZEA DQ FLAT:??__Ewindow@@YAXXZ ; window$initializer$
CRT$XCU	ENDS
CRT$XCU	SEGMENT
?shape$initializer$@@3P6AXXZEA DQ FLAT:??__Eshape@@YAXXZ ; shape$initializer$
CRT$XCU	ENDS
CRT$XCU	SEGMENT
?PheremoneMap$initializer$@@3P6AXXZEA DQ FLAT:??__EPheremoneMap@@YAXXZ ; PheremoneMap$initializer$
CRT$XCU	ENDS
CRT$XCU	SEGMENT
?PheremoneTexture$initializer$@@3P6AXXZEA DQ FLAT:??__EPheremoneTexture@@YAXXZ ; PheremoneTexture$initializer$
CRT$XCU	ENDS
CRT$XCU	SEGMENT
?Pixels$initializer$@@3P6AXXZEA DQ FLAT:??__EPixels@@YAXXZ ; Pixels$initializer$
CRT$XCU	ENDS
CRT$XCU	SEGMENT
?tex_grid$initializer$@@3P6AXXZEA DQ FLAT:??__Etex_grid@@YAXXZ ; tex_grid$initializer$
CRT$XCU	ENDS
CRT$XCU	SEGMENT
?GraphVertexBuffer$initializer$@@3P6AXXZEA DQ FLAT:??__EGraphVertexBuffer@@YAXXZ ; GraphVertexBuffer$initializer$
CRT$XCU	ENDS
CRT$XCU	SEGMENT
?GraphArea$initializer$@@3P6AXXZEA DQ FLAT:??__EGraphArea@@YAXXZ ; GraphArea$initializer$
CRT$XCU	ENDS
END
