; Listing generated by Microsoft (R) Optimizing Compiler Version 19.22.27905.0 

include listing.inc

INCLUDELIB OLDNAMES

PUBLIC	?size@?$vector@U?$vec@$01M$0A@@glm@@V?$allocator@U?$vec@$01M$0A@@glm@@@std@@@std@@QEBA_KXZ ; std::vector<glm::vec<2,float,0>,std::allocator<glm::vec<2,float,0> > >::size
PUBLIC	?GetStrengthFast@PheremoneGrid@@QEAAAEAMHH@Z	; PheremoneGrid::GetStrengthFast
PUBLIC	?GetDirectionFast@PheremoneGrid@@QEAAAEAU?$vec@$01M$0A@@glm@@HH@Z ; PheremoneGrid::GetDirectionFast
PUBLIC	?Update@PheremoneGrid@@QEAAXM@Z			; PheremoneGrid::Update
;	COMDAT pdata
pdata	SEGMENT
$pdata$?Update@PheremoneGrid@@QEAAXM@Z DD imagerel $LN177
	DD	imagerel $LN177+73
	DD	imagerel $unwind$?Update@PheremoneGrid@@QEAAXM@Z
pdata	ENDS
;	COMDAT pdata
pdata	SEGMENT
$pdata$1$?Update@PheremoneGrid@@QEAAXM@Z DD imagerel $LN177+73
	DD	imagerel $LN177+88
	DD	imagerel $chain$1$?Update@PheremoneGrid@@QEAAXM@Z
pdata	ENDS
;	COMDAT pdata
pdata	SEGMENT
$pdata$2$?Update@PheremoneGrid@@QEAAXM@Z DD imagerel $LN177+88
	DD	imagerel $LN177+704
	DD	imagerel $chain$2$?Update@PheremoneGrid@@QEAAXM@Z
pdata	ENDS
;	COMDAT pdata
pdata	SEGMENT
$pdata$3$?Update@PheremoneGrid@@QEAAXM@Z DD imagerel $LN177+704
	DD	imagerel $LN177+1445
	DD	imagerel $chain$3$?Update@PheremoneGrid@@QEAAXM@Z
pdata	ENDS
;	COMDAT pdata
pdata	SEGMENT
$pdata$4$?Update@PheremoneGrid@@QEAAXM@Z DD imagerel $LN177+1445
	DD	imagerel $LN177+1451
	DD	imagerel $chain$4$?Update@PheremoneGrid@@QEAAXM@Z
;	COMDAT xdata
xdata	SEGMENT
$chain$4$?Update@PheremoneGrid@@QEAAXM@Z DD 021H
	DD	imagerel $LN177
	DD	imagerel $LN177+73
	DD	imagerel $unwind$?Update@PheremoneGrid@@QEAAXM@Z
xdata	ENDS
;	COMDAT xdata
xdata	SEGMENT
$chain$3$?Update@PheremoneGrid@@QEAAXM@Z DD 021H
	DD	imagerel $LN177+73
	DD	imagerel $LN177+88
	DD	imagerel $chain$1$?Update@PheremoneGrid@@QEAAXM@Z
xdata	ENDS
;	COMDAT xdata
xdata	SEGMENT
$chain$2$?Update@PheremoneGrid@@QEAAXM@Z DD 020521H
	DD	0b7405H
	DD	imagerel $LN177+73
	DD	imagerel $LN177+88
	DD	imagerel $chain$1$?Update@PheremoneGrid@@QEAAXM@Z
xdata	ENDS
;	COMDAT xdata
xdata	SEGMENT
$chain$1$?Update@PheremoneGrid@@QEAAXM@Z DD 040c21H
	DD	0a640cH
	DD	095405H
	DD	imagerel $LN177
	DD	imagerel $LN177+73
	DD	imagerel $unwind$?Update@PheremoneGrid@@QEAAXM@Z
xdata	ENDS
;	COMDAT xdata
xdata	SEGMENT
$unwind$?Update@PheremoneGrid@@QEAAXM@Z DD 020601H
	DD	030025206H
; Function compile flags: /Ogtpy
; File D:\Github\Anterminator\Anterminator\AntSim\PheremoneGrid.cpp
; File C:\Program Files (x86)\Microsoft Visual Studio\2019\Community\VC\Tools\MSVC\14.22.27905\include\array
; File C:\Program Files (x86)\Microsoft Visual Studio\2019\Community\VC\Tools\MSVC\14.22.27905\include\vector
; File D:\Github\Anterminator\Anterminator\AntSim\PheremoneGrid.cpp
; File C:\Program Files (x86)\Microsoft Visual Studio\2019\Community\VC\Tools\MSVC\14.22.27905\include\xstddef
; File D:\Github\Anterminator\Anterminator\AntSim\PheremoneGrid.cpp
; File C:\Program Files (x86)\Microsoft Visual Studio\2019\Community\VC\Tools\MSVC\14.22.27905\include\array
; File C:\Program Files (x86)\Microsoft Visual Studio\2019\Community\VC\Tools\MSVC\14.22.27905\include\vector
; File D:\Github\Anterminator\Anterminator\AntSim\PheremoneGrid.cpp
; File C:\Program Files (x86)\Microsoft Visual Studio\2019\Community\VC\Tools\MSVC\14.22.27905\include\xstddef
; File D:\Github\Anterminator\Anterminator\AntSim\PheremoneGrid.cpp
; File C:\Program Files (x86)\Microsoft Visual Studio\2019\Community\VC\Tools\MSVC\14.22.27905\include\algorithm
; File C:\Program Files (x86)\Microsoft Visual Studio\2019\Community\VC\Tools\MSVC\14.22.27905\include\xstddef
; File C:\Program Files (x86)\Microsoft Visual Studio\2019\Community\VC\Tools\MSVC\14.22.27905\include\algorithm
; File D:\Github\Anterminator\Anterminator\AntSim\PheremoneGrid.cpp
; File C:\Program Files (x86)\Microsoft Visual Studio\2019\Community\VC\Tools\MSVC\14.22.27905\include\array
; File C:\Program Files (x86)\Microsoft Visual Studio\2019\Community\VC\Tools\MSVC\14.22.27905\include\vector
; File D:\Github\Anterminator\Anterminator\AntSim\PheremoneGrid.cpp
; File D:\Github\Anterminator\Anterminator\AntSim\PheremoneGrid.h
; File D:\Github\Anterminator\Anterminator\AntSim\PheremoneGrid.cpp
; File C:\Program Files (x86)\Microsoft Visual Studio\2019\Community\VC\Tools\MSVC\14.22.27905\include\array
; File D:\Github\Anterminator\Anterminator\AntSim\PheremoneGrid.cpp
; File C:\Program Files (x86)\Microsoft Visual Studio\2019\Community\VC\Tools\MSVC\14.22.27905\include\array
; File C:\Program Files (x86)\Microsoft Visual Studio\2019\Community\VC\Tools\MSVC\14.22.27905\include\vector
; File C:\Program Files (x86)\Microsoft Visual Studio\2019\Community\VC\Tools\MSVC\14.22.27905\include\array
; File D:\Github\Anterminator\glm\glm\detail\type_vec2.inl
; File D:\Github\Anterminator\Anterminator\AntSim\PheremoneGrid.cpp
; File D:\Github\Anterminator\glm\glm\detail\type_vec2.inl
; File D:\Github\Anterminator\Anterminator\AntSim\PheremoneGrid.cpp
; File D:\Github\Anterminator\glm\glm\detail\type_vec2.inl
; File D:\Github\Anterminator\Anterminator\AntSim\PheremoneGrid.cpp
; File D:\Github\Anterminator\Anterminator\AntSim\PheremoneGrid.h
; File C:\Program Files (x86)\Microsoft Visual Studio\2019\Community\VC\Tools\MSVC\14.22.27905\include\array
; File D:\Github\Anterminator\Anterminator\AntSim\PheremoneGrid.cpp
; File C:\Program Files (x86)\Microsoft Visual Studio\2019\Community\VC\Tools\MSVC\14.22.27905\include\array
; File C:\Program Files (x86)\Microsoft Visual Studio\2019\Community\VC\Tools\MSVC\14.22.27905\include\vector
; File C:\Program Files (x86)\Microsoft Visual Studio\2019\Community\VC\Tools\MSVC\14.22.27905\include\array
; File D:\Github\Anterminator\Anterminator\AntSim\PheremoneGrid.cpp
; File D:\Github\Anterminator\Anterminator\AntSim\PheremoneGrid.h
; File C:\Program Files (x86)\Microsoft Visual Studio\2019\Community\VC\Tools\MSVC\14.22.27905\include\array
; File D:\Github\Anterminator\Anterminator\AntSim\PheremoneGrid.cpp
; File D:\Github\Anterminator\Anterminator\AntSim\PheremoneGrid.h
; File C:\Program Files (x86)\Microsoft Visual Studio\2019\Community\VC\Tools\MSVC\14.22.27905\include\array
; File D:\Github\Anterminator\Anterminator\AntSim\PheremoneGrid.cpp
; File D:\Github\Anterminator\Anterminator\AntSim\PheremoneGrid.h
; File C:\Program Files (x86)\Microsoft Visual Studio\2019\Community\VC\Tools\MSVC\14.22.27905\include\array
; File D:\Github\Anterminator\Anterminator\AntSim\PheremoneGrid.cpp
; File D:\Github\Anterminator\Anterminator\AntSim\PheremoneGrid.h
; File C:\Program Files (x86)\Microsoft Visual Studio\2019\Community\VC\Tools\MSVC\14.22.27905\include\array
; File D:\Github\Anterminator\Anterminator\AntSim\PheremoneGrid.cpp
; File D:\Github\Anterminator\Anterminator\AntSim\PheremoneGrid.h
; File C:\Program Files (x86)\Microsoft Visual Studio\2019\Community\VC\Tools\MSVC\14.22.27905\include\array
; File D:\Github\Anterminator\Anterminator\AntSim\PheremoneGrid.cpp
; File D:\Github\Anterminator\Anterminator\AntSim\PheremoneGrid.h
; File C:\Program Files (x86)\Microsoft Visual Studio\2019\Community\VC\Tools\MSVC\14.22.27905\include\array
; File D:\Github\Anterminator\Anterminator\AntSim\PheremoneGrid.cpp
; File D:\Github\Anterminator\Anterminator\AntSim\PheremoneGrid.h
; File C:\Program Files (x86)\Microsoft Visual Studio\2019\Community\VC\Tools\MSVC\14.22.27905\include\array
; File D:\Github\Anterminator\Anterminator\AntSim\PheremoneGrid.cpp
; File D:\Github\Anterminator\Anterminator\AntSim\PheremoneGrid.h
; File C:\Program Files (x86)\Microsoft Visual Studio\2019\Community\VC\Tools\MSVC\14.22.27905\include\array
; File D:\Github\Anterminator\Anterminator\AntSim\PheremoneGrid.cpp
; File D:\Github\Anterminator\Anterminator\AntSim\PheremoneGrid.h
; File C:\Program Files (x86)\Microsoft Visual Studio\2019\Community\VC\Tools\MSVC\14.22.27905\include\array
; File D:\Github\Anterminator\Anterminator\AntSim\PheremoneGrid.cpp
; File D:\Github\Anterminator\Anterminator\AntSim\PheremoneGrid.h
; File C:\Program Files (x86)\Microsoft Visual Studio\2019\Community\VC\Tools\MSVC\14.22.27905\include\array
; File D:\Github\Anterminator\Anterminator\AntSim\PheremoneGrid.cpp
; File D:\Github\Anterminator\Anterminator\AntSim\PheremoneGrid.h
; File C:\Program Files (x86)\Microsoft Visual Studio\2019\Community\VC\Tools\MSVC\14.22.27905\include\array
; File D:\Github\Anterminator\Anterminator\AntSim\PheremoneGrid.cpp
; File D:\Github\Anterminator\Anterminator\AntSim\PheremoneGrid.h
; File C:\Program Files (x86)\Microsoft Visual Studio\2019\Community\VC\Tools\MSVC\14.22.27905\include\array
; File D:\Github\Anterminator\Anterminator\AntSim\PheremoneGrid.cpp
; File D:\Github\Anterminator\Anterminator\AntSim\PheremoneGrid.h
; File C:\Program Files (x86)\Microsoft Visual Studio\2019\Community\VC\Tools\MSVC\14.22.27905\include\array
; File D:\Github\Anterminator\Anterminator\AntSim\PheremoneGrid.cpp
; File D:\Github\Anterminator\Anterminator\AntSim\PheremoneGrid.h
; File C:\Program Files (x86)\Microsoft Visual Studio\2019\Community\VC\Tools\MSVC\14.22.27905\include\array
; File D:\Github\Anterminator\Anterminator\AntSim\PheremoneGrid.cpp
; File D:\Github\Anterminator\Anterminator\AntSim\PheremoneGrid.h
; File C:\Program Files (x86)\Microsoft Visual Studio\2019\Community\VC\Tools\MSVC\14.22.27905\include\array
; File D:\Github\Anterminator\Anterminator\AntSim\PheremoneGrid.cpp
; File D:\Github\Anterminator\Anterminator\AntSim\PheremoneGrid.h
; File C:\Program Files (x86)\Microsoft Visual Studio\2019\Community\VC\Tools\MSVC\14.22.27905\include\array
; File D:\Github\Anterminator\Anterminator\AntSim\PheremoneGrid.cpp
; File D:\Github\Anterminator\Anterminator\AntSim\PheremoneGrid.h
; File C:\Program Files (x86)\Microsoft Visual Studio\2019\Community\VC\Tools\MSVC\14.22.27905\include\array
; File D:\Github\Anterminator\Anterminator\AntSim\PheremoneGrid.cpp
; File D:\Github\Anterminator\Anterminator\AntSim\PheremoneGrid.h
; File C:\Program Files (x86)\Microsoft Visual Studio\2019\Community\VC\Tools\MSVC\14.22.27905\include\array
; File D:\Github\Anterminator\Anterminator\AntSim\PheremoneGrid.cpp
; File D:\Github\Anterminator\Anterminator\AntSim\PheremoneGrid.h
; File C:\Program Files (x86)\Microsoft Visual Studio\2019\Community\VC\Tools\MSVC\14.22.27905\include\array
; File D:\Github\Anterminator\Anterminator\AntSim\PheremoneGrid.cpp
; File D:\Github\Anterminator\Anterminator\AntSim\PheremoneGrid.h
; File C:\Program Files (x86)\Microsoft Visual Studio\2019\Community\VC\Tools\MSVC\14.22.27905\include\array
; File D:\Github\Anterminator\Anterminator\AntSim\PheremoneGrid.cpp
; File D:\Github\Anterminator\Anterminator\AntSim\PheremoneGrid.h
; File C:\Program Files (x86)\Microsoft Visual Studio\2019\Community\VC\Tools\MSVC\14.22.27905\include\array
; File D:\Github\Anterminator\Anterminator\AntSim\PheremoneGrid.cpp
; File D:\Github\Anterminator\Anterminator\AntSim\PheremoneGrid.h
; File C:\Program Files (x86)\Microsoft Visual Studio\2019\Community\VC\Tools\MSVC\14.22.27905\include\array
; File D:\Github\Anterminator\Anterminator\AntSim\PheremoneGrid.cpp
; File D:\Github\Anterminator\Anterminator\AntSim\PheremoneGrid.h
; File C:\Program Files (x86)\Microsoft Visual Studio\2019\Community\VC\Tools\MSVC\14.22.27905\include\array
; File D:\Github\Anterminator\Anterminator\AntSim\PheremoneGrid.cpp
; File D:\Github\Anterminator\Anterminator\AntSim\PheremoneGrid.h
; File C:\Program Files (x86)\Microsoft Visual Studio\2019\Community\VC\Tools\MSVC\14.22.27905\include\array
; File D:\Github\Anterminator\Anterminator\AntSim\PheremoneGrid.cpp
; File D:\Github\Anterminator\Anterminator\AntSim\PheremoneGrid.h
; File C:\Program Files (x86)\Microsoft Visual Studio\2019\Community\VC\Tools\MSVC\14.22.27905\include\array
; File D:\Github\Anterminator\Anterminator\AntSim\PheremoneGrid.cpp
; File D:\Github\Anterminator\Anterminator\AntSim\PheremoneGrid.h
; File C:\Program Files (x86)\Microsoft Visual Studio\2019\Community\VC\Tools\MSVC\14.22.27905\include\array
; File D:\Github\Anterminator\Anterminator\AntSim\PheremoneGrid.cpp
; File D:\Github\Anterminator\Anterminator\AntSim\PheremoneGrid.h
; File C:\Program Files (x86)\Microsoft Visual Studio\2019\Community\VC\Tools\MSVC\14.22.27905\include\array
; File D:\Github\Anterminator\Anterminator\AntSim\PheremoneGrid.cpp
; File D:\Github\Anterminator\Anterminator\AntSim\PheremoneGrid.h
; File C:\Program Files (x86)\Microsoft Visual Studio\2019\Community\VC\Tools\MSVC\14.22.27905\include\array
; File D:\Github\Anterminator\Anterminator\AntSim\PheremoneGrid.cpp
; File D:\Github\Anterminator\Anterminator\AntSim\PheremoneGrid.h
; File C:\Program Files (x86)\Microsoft Visual Studio\2019\Community\VC\Tools\MSVC\14.22.27905\include\array
; File D:\Github\Anterminator\Anterminator\AntSim\PheremoneGrid.cpp
; File D:\Github\Anterminator\Anterminator\AntSim\PheremoneGrid.h
; File C:\Program Files (x86)\Microsoft Visual Studio\2019\Community\VC\Tools\MSVC\14.22.27905\include\array
; File D:\Github\Anterminator\Anterminator\AntSim\PheremoneGrid.cpp
; File D:\Github\Anterminator\Anterminator\AntSim\PheremoneGrid.h
; File C:\Program Files (x86)\Microsoft Visual Studio\2019\Community\VC\Tools\MSVC\14.22.27905\include\array
; File D:\Github\Anterminator\Anterminator\AntSim\PheremoneGrid.cpp
; File D:\Github\Anterminator\Anterminator\AntSim\PheremoneGrid.h
; File C:\Program Files (x86)\Microsoft Visual Studio\2019\Community\VC\Tools\MSVC\14.22.27905\include\array
; File D:\Github\Anterminator\Anterminator\AntSim\PheremoneGrid.cpp
;	COMDAT ?Update@PheremoneGrid@@QEAAXM@Z
_TEXT	SEGMENT
$T48 = 32
$T11 = 32
$T10 = 40
this$ = 64
DeltaTime$dead$ = 72
?Update@PheremoneGrid@@QEAAXM@Z PROC			; PheremoneGrid::Update, COMDAT

; 2    : void PheremoneGrid::Update(float DeltaTime) {

$LN177:
	push	rbx
	sub	rsp, 48					; 00000030H
	mov	rbx, rcx

; 3    : 	if (DiffuseTime++ > DiffuseTimeMax+ rand() % 5)

	call	QWORD PTR __imp_rand
	mov	r9d, eax
	mov	eax, 1717986919				; 66666667H
	imul	r9d
	sar	edx, 1
	mov	r8d, edx
	shr	r8d, 31
	add	edx, r8d
	lea	ecx, DWORD PTR [rdx+rdx*4]
	mov	edx, DWORD PTR [rbx+16]
	sub	r9d, ecx
	mov	ecx, DWORD PTR [rbx+20]
	add	ecx, r9d
	lea	r8d, DWORD PTR [rdx+1]
	mov	DWORD PTR [rbx+16], r8d
	cmp	edx, ecx
	jle	$LN14@Update

; 7    : 		for (int i = 0; i < cached_data[SwapBuffer].Direction.size(); ++i)

	movsxd	r10, DWORD PTR [rbx+24]
	mov	QWORD PTR [rsp+72], rbp
	xor	ebp, ebp
	mov	QWORD PTR [rsp+80], rsi
	mov	r11d, ebp
	mov	QWORD PTR [rsp+88], rdi
; File C:\Program Files (x86)\Microsoft Visual Studio\2019\Community\VC\Tools\MSVC\14.22.27905\include\array

; 148  :         return _Elems[_Pos];

	lea	rcx, QWORD PTR [r10+r10*2]
	add	rcx, rcx
; File C:\Program Files (x86)\Microsoft Visual Studio\2019\Community\VC\Tools\MSVC\14.22.27905\include\vector

; 1448 :         return static_cast<size_type>(_My_data._Mylast - _My_data._Myfirst);

	mov	rax, QWORD PTR [rbx+rcx*8+40]
	sub	rax, QWORD PTR [rbx+rcx*8+32]
	sar	rax, 3
; File D:\Github\Anterminator\Anterminator\AntSim\PheremoneGrid.cpp

; 7    : 		for (int i = 0; i < cached_data[SwapBuffer].Direction.size(); ++i)

	test	rax, rax
	je	$LN3@Update

; 11   : 			Strength = std::clamp(Strength - (DecayRate * DeltaTime* static_cast<float>(DiffuseTime)), 0.0f, MaxStrength);

	vmovss	xmm5, DWORD PTR __real@3c23d70a
	vmovsd	xmm4, QWORD PTR __real@3fb999999999999a
	vxorps	xmm3, xmm3, xmm3
	vmovss	DWORD PTR $T10[rsp], xmm3
	mov	r9d, ebp
	mov	r8d, ebp
	npad	5
$LL4@Update:
	vmulss	xmm1, xmm5, DWORD PTR [rbx+4]
; File C:\Program Files (x86)\Microsoft Visual Studio\2019\Community\VC\Tools\MSVC\14.22.27905\include\xstddef

; 246  :         return static_cast<_Ty1&&>(_Left) < static_cast<_Ty2&&>(_Right);

	vmovss	xmm0, DWORD PTR [rbx]
; File D:\Github\Anterminator\Anterminator\AntSim\PheremoneGrid.cpp

; 9    : 			auto& Strength = cached_data[SwapBuffer].Strength[i];

	movsxd	rax, r10d
	vxorps	xmm2, xmm2, xmm2

; 11   : 			Strength = std::clamp(Strength - (DecayRate * DeltaTime* static_cast<float>(DiffuseTime)), 0.0f, MaxStrength);

	vcvtsi2ss xmm2, xmm2, DWORD PTR [rbx+16]
; File C:\Program Files (x86)\Microsoft Visual Studio\2019\Community\VC\Tools\MSVC\14.22.27905\include\array

; 148  :         return _Elems[_Pos];

	lea	rcx, QWORD PTR [rax+rax*2]
	add	rcx, rcx
; File C:\Program Files (x86)\Microsoft Visual Studio\2019\Community\VC\Tools\MSVC\14.22.27905\include\vector

; 1468 :         return _My_data._Myfirst[_Pos];

	mov	rdx, QWORD PTR [rbx+rcx*8+56]
	mov	r10, QWORD PTR [rbx+rcx*8+32]
; File D:\Github\Anterminator\Anterminator\AntSim\PheremoneGrid.cpp

; 11   : 			Strength = std::clamp(Strength - (DecayRate * DeltaTime* static_cast<float>(DiffuseTime)), 0.0f, MaxStrength);

	vfnmadd213ss xmm2, xmm1, DWORD PTR [r8+rdx]
; File C:\Program Files (x86)\Microsoft Visual Studio\2019\Community\VC\Tools\MSVC\14.22.27905\include\xstddef

; 246  :         return static_cast<_Ty1&&>(_Left) < static_cast<_Ty2&&>(_Right);

	vcomiss	xmm0, xmm2
; File D:\Github\Anterminator\Anterminator\AntSim\PheremoneGrid.cpp

; 11   : 			Strength = std::clamp(Strength - (DecayRate * DeltaTime* static_cast<float>(DiffuseTime)), 0.0f, MaxStrength);

	vmovss	DWORD PTR $T11[rsp], xmm2
; File C:\Program Files (x86)\Microsoft Visual Studio\2019\Community\VC\Tools\MSVC\14.22.27905\include\algorithm

; 4683 :     return _DEBUG_LT_PRED(_Pred, _Max_val, _Val) ? _Max_val : _DEBUG_LT_PRED(_Pred, _Val, _Min_val) ? _Min_val : _Val;

	jb	SHORT $LN34@Update
; File C:\Program Files (x86)\Microsoft Visual Studio\2019\Community\VC\Tools\MSVC\14.22.27905\include\xstddef

; 246  :         return static_cast<_Ty1&&>(_Left) < static_cast<_Ty2&&>(_Right);

	vcomiss	xmm2, xmm3
; File C:\Program Files (x86)\Microsoft Visual Studio\2019\Community\VC\Tools\MSVC\14.22.27905\include\algorithm

; 4683 :     return _DEBUG_LT_PRED(_Pred, _Max_val, _Val) ? _Max_val : _DEBUG_LT_PRED(_Pred, _Val, _Min_val) ? _Min_val : _Val;

	lea	rax, QWORD PTR $T10[rsp]
	lea	rcx, QWORD PTR $T11[rsp]
	cmovae	rax, rcx
	vmovss	xmm0, DWORD PTR [rax]
$LN34@Update:
; File D:\Github\Anterminator\Anterminator\AntSim\PheremoneGrid.cpp

; 11   : 			Strength = std::clamp(Strength - (DecayRate * DeltaTime* static_cast<float>(DiffuseTime)), 0.0f, MaxStrength);

	vmovss	DWORD PTR [r8+rdx], xmm0

; 12   : 			//v.Direction += (glm::vec2(fast_rand() % 11 / 10, fast_rand() % 11 / 10) - 0.5f) * 0.1f;
; 13   : 			if (Strength < 0.1)

	vcvtss2sd xmm0, xmm0, xmm0
	vcomisd	xmm0, xmm4
	jae	SHORT $LN2@Update

; 14   : 			{
; 15   : 				Direction.x = 0;

	mov	QWORD PTR [r9+r10], rbp

; 16   : 				Direction.y = 0;
; 17   : 				Strength = 0;

	mov	DWORD PTR [r8+rdx], ebp
$LN2@Update:

; 7    : 		for (int i = 0; i < cached_data[SwapBuffer].Direction.size(); ++i)

	movsxd	r10, DWORD PTR [rbx+24]
	inc	r11d
	add	r8, 4
	movsxd	rax, r11d
	add	r9, 8
; File C:\Program Files (x86)\Microsoft Visual Studio\2019\Community\VC\Tools\MSVC\14.22.27905\include\array

; 148  :         return _Elems[_Pos];

	lea	rcx, QWORD PTR [r10+r10*2]
	add	rcx, rcx
; File C:\Program Files (x86)\Microsoft Visual Studio\2019\Community\VC\Tools\MSVC\14.22.27905\include\vector

; 1448 :         return static_cast<size_type>(_My_data._Mylast - _My_data._Myfirst);

	mov	rdx, QWORD PTR [rbx+rcx*8+40]
	sub	rdx, QWORD PTR [rbx+rcx*8+32]
	sar	rdx, 3
; File D:\Github\Anterminator\Anterminator\AntSim\PheremoneGrid.cpp

; 7    : 		for (int i = 0; i < cached_data[SwapBuffer].Direction.size(); ++i)

	cmp	rax, rdx
	jb	$LL4@Update
	mov	r8d, DWORD PTR [rbx+16]
$LN3@Update:
	vxorps	xmm0, xmm0, xmm0

; 18   : 			}
; 19   : 		}
; 20   : 		float MeshDiffusionNumber = DiffusionConstant * (DeltaTime * static_cast<float>(DiffuseTime)) / Size;

	vcvtsi2ss xmm0, xmm0, r8d
	vmulss	xmm1, xmm0, DWORD PTR __real@3ba7c5ad
	vmulss	xmm2, xmm1, DWORD PTR [rbx+8]

; 21   : 		MeshDiffusionNumber = std::min(MeshDiffusionNumber, MaxDiffusionConstant);

	vmovss	xmm0, DWORD PTR __real@3f800000
	vminss	xmm4, xmm2, DWORD PTR [rbx+12]
	vmovss	xmm1, DWORD PTR __real@40800000
	vfmadd213ss xmm1, xmm4, xmm0

; 22   : 		float Crecip = 1.0 / (1.0f + (MeshDiffusionNumber * 4.0f));

	vdivss	xmm5, xmm0, xmm1
	mov	edi, 4104				; 00001008H
	mov	esi, 1046532				; 000ff804H
	mov	r11d, 2052				; 00000804H
	npad	2
$LL7@Update:

; 27   : 			for (int y = 1; y < GridSize-1; ++y)

	mov	r9, r11
	mov	r8, rdi
	mov	r10d, 510				; 000001feH
	npad	4
$LL10@Update:
; File D:\Github\Anterminator\Anterminator\AntSim\PheremoneGrid.h

; 83   : 		return cached_data[SwapBuffer].Direction[(ix * GridSize) + iy];

	movsxd	rdx, DWORD PTR [rbx+24]
; File D:\Github\Anterminator\Anterminator\AntSim\PheremoneGrid.cpp

; 27   : 			for (int y = 1; y < GridSize-1; ++y)

	lea	r9, QWORD PTR [r9+4]
	lea	r8, QWORD PTR [r8+8]
; File C:\Program Files (x86)\Microsoft Visual Studio\2019\Community\VC\Tools\MSVC\14.22.27905\include\array

; 148  :         return _Elems[_Pos];

	lea	rax, QWORD PTR [rdx+rdx*2]
; File D:\Github\Anterminator\Anterminator\AntSim\PheremoneGrid.cpp

; 29   : 				cached_data[SwapBuffer^1].Direction[(x * GridSize) + y] =

	xor	rdx, 1
; File C:\Program Files (x86)\Microsoft Visual Studio\2019\Community\VC\Tools\MSVC\14.22.27905\include\array

; 148  :         return _Elems[_Pos];

	add	rax, rax
; File C:\Program Files (x86)\Microsoft Visual Studio\2019\Community\VC\Tools\MSVC\14.22.27905\include\vector

; 1468 :         return _My_data._Myfirst[_Pos];

	mov	rcx, QWORD PTR [rbx+rax*8+32]
; File C:\Program Files (x86)\Microsoft Visual Studio\2019\Community\VC\Tools\MSVC\14.22.27905\include\array

; 148  :         return _Elems[_Pos];

	lea	rax, QWORD PTR [rdx+rdx*2]
	add	rax, rax
; File D:\Github\Anterminator\glm\glm\detail\type_vec2.inl

; 511  : 		return vec<2, T, Q>(

	vmovss	xmm0, DWORD PTR [r8+rcx+4088]
	vaddss	xmm1, xmm0, DWORD PTR [r8+rcx-4104]
	vaddss	xmm2, xmm1, DWORD PTR [r8+rcx-16]
	vaddss	xmm3, xmm2, DWORD PTR [r8+rcx]
	vmovss	xmm1, DWORD PTR [r8+rcx+4092]
	vaddss	xmm2, xmm1, DWORD PTR [r8+rcx-4100]
; File D:\Github\Anterminator\Anterminator\AntSim\PheremoneGrid.cpp

; 29   : 				cached_data[SwapBuffer^1].Direction[(x * GridSize) + y] =

	vmovaps	xmm0, xmm4
	vfmadd213ss xmm0, xmm3, DWORD PTR [r8+rcx-8]
; File D:\Github\Anterminator\glm\glm\detail\type_vec2.inl

; 38   : 		: x(_x), y(_y)

	vmulss	xmm0, xmm0, xmm5
	vmovss	DWORD PTR $T48[rsp], xmm0

; 511  : 		return vec<2, T, Q>(

	vaddss	xmm0, xmm2, DWORD PTR [r8+rcx-12]
	vaddss	xmm3, xmm0, DWORD PTR [r8+rcx+4]

; 38   : 		: x(_x), y(_y)

	vmovaps	xmm1, xmm4
	vfmadd213ss xmm1, xmm3, DWORD PTR [r8+rcx-4]
; File D:\Github\Anterminator\Anterminator\AntSim\PheremoneGrid.cpp

; 29   : 				cached_data[SwapBuffer^1].Direction[(x * GridSize) + y] =

	mov	rcx, QWORD PTR [rbx+rax*8+32]
; File D:\Github\Anterminator\glm\glm\detail\type_vec2.inl

; 38   : 		: x(_x), y(_y)

	vmulss	xmm0, xmm1, xmm5
	vmovss	DWORD PTR $T48[rsp+4], xmm0
; File D:\Github\Anterminator\Anterminator\AntSim\PheremoneGrid.cpp

; 29   : 				cached_data[SwapBuffer^1].Direction[(x * GridSize) + y] =

	mov	rax, QWORD PTR $T48[rsp]
	mov	QWORD PTR [r8+rcx-8], rax
; File D:\Github\Anterminator\Anterminator\AntSim\PheremoneGrid.h

; 87   : 		return cached_data[SwapBuffer].Strength[(ix * GridSize) + iy];

	movsxd	rdx, DWORD PTR [rbx+24]
; File C:\Program Files (x86)\Microsoft Visual Studio\2019\Community\VC\Tools\MSVC\14.22.27905\include\array

; 148  :         return _Elems[_Pos];

	lea	rax, QWORD PTR [rdx+rdx*2]
; File D:\Github\Anterminator\Anterminator\AntSim\PheremoneGrid.cpp

; 36   : 				cached_data[SwapBuffer^1].Strength[(x * GridSize) + y] = 

	xor	rdx, 1
; File C:\Program Files (x86)\Microsoft Visual Studio\2019\Community\VC\Tools\MSVC\14.22.27905\include\array

; 148  :         return _Elems[_Pos];

	add	rax, rax
; File C:\Program Files (x86)\Microsoft Visual Studio\2019\Community\VC\Tools\MSVC\14.22.27905\include\vector

; 1468 :         return _My_data._Myfirst[_Pos];

	mov	rcx, QWORD PTR [rbx+rax*8+56]
; File C:\Program Files (x86)\Microsoft Visual Studio\2019\Community\VC\Tools\MSVC\14.22.27905\include\array

; 148  :         return _Elems[_Pos];

	lea	rax, QWORD PTR [rdx+rdx*2]
	add	rax, rax
; File D:\Github\Anterminator\Anterminator\AntSim\PheremoneGrid.cpp

; 36   : 				cached_data[SwapBuffer^1].Strength[(x * GridSize) + y] = 

	vmovss	xmm0, DWORD PTR [r9+rcx-2052]
	mov	rax, QWORD PTR [rbx+rax*8+56]
	vaddss	xmm1, xmm0, DWORD PTR [r9+rcx+2044]
	vaddss	xmm2, xmm1, DWORD PTR [r9+rcx-8]
	vaddss	xmm3, xmm2, DWORD PTR [r9+rcx]
	vmovaps	xmm0, xmm4
	vfmadd213ss xmm0, xmm3, DWORD PTR [r9+rcx-4]
	vmulss	xmm1, xmm0, xmm5
	vmovss	DWORD PTR [r9+rax-4], xmm1
	sub	r10, 1
	jne	$LL10@Update

; 23   : //#pragma omp parallel for
; 24   : 		for (int x = 1; x < GridSize-1; ++x)

	add	r11, 2048				; 00000800H
	add	rdi, 4096				; 00001000H
	cmp	r11, rsi
	jl	$LL7@Update

; 37   : 						(GetStrengthFast(x, y) +
; 38   : 						(MeshDiffusionNumber * (
; 39   : 							GetStrengthFast(x - 1, y)
; 40   : 							+ GetStrengthFast(x + 1, y)
; 41   : 							+ GetStrengthFast(x, y - 1)
; 42   : 							+ GetStrengthFast(x, y + 1)))) * Crecip;
; 43   : 			}
; 44   : 		}
; 45   : 		SwapBuffer ^= 1;

	xor	DWORD PTR [rbx+24], 1
	mov	rcx, rbp
	mov	rdi, QWORD PTR [rsp+88]
	npad	13
$LL13@Update:
; File D:\Github\Anterminator\Anterminator\AntSim\PheremoneGrid.h

; 87   : 		return cached_data[SwapBuffer].Strength[(ix * GridSize) + iy];

	movsxd	rax, DWORD PTR [rbx+24]
; File C:\Program Files (x86)\Microsoft Visual Studio\2019\Community\VC\Tools\MSVC\14.22.27905\include\array

; 148  :         return _Elems[_Pos];

	lea	rax, QWORD PTR [rax+rax*2]
	add	rax, rax
; File D:\Github\Anterminator\Anterminator\AntSim\PheremoneGrid.cpp

; 59   : 			GetStrengthFast(v,0) = 0;

	mov	rax, QWORD PTR [rbx+rax*8+56]
	mov	DWORD PTR [rcx+rax], ebp
; File D:\Github\Anterminator\Anterminator\AntSim\PheremoneGrid.h

; 87   : 		return cached_data[SwapBuffer].Strength[(ix * GridSize) + iy];

	movsxd	rax, DWORD PTR [rbx+24]
; File C:\Program Files (x86)\Microsoft Visual Studio\2019\Community\VC\Tools\MSVC\14.22.27905\include\array

; 148  :         return _Elems[_Pos];

	lea	rax, QWORD PTR [rax+rax*2]
	add	rax, rax
; File D:\Github\Anterminator\Anterminator\AntSim\PheremoneGrid.cpp

; 60   : 			GetStrengthFast(v,(GridSize-1)) = 0;

	mov	rax, QWORD PTR [rbx+rax*8+56]
	mov	DWORD PTR [rax+rcx+2044], ebp
; File D:\Github\Anterminator\Anterminator\AntSim\PheremoneGrid.h

; 87   : 		return cached_data[SwapBuffer].Strength[(ix * GridSize) + iy];

	movsxd	rax, DWORD PTR [rbx+24]
; File C:\Program Files (x86)\Microsoft Visual Studio\2019\Community\VC\Tools\MSVC\14.22.27905\include\array

; 148  :         return _Elems[_Pos];

	lea	rax, QWORD PTR [rax+rax*2]
	add	rax, rax
; File D:\Github\Anterminator\Anterminator\AntSim\PheremoneGrid.cpp

; 61   : 			GetStrengthFast(0,v) = 0;

	mov	rax, QWORD PTR [rbx+rax*8+56]
	mov	DWORD PTR [rsi+rax-1046532], ebp
; File D:\Github\Anterminator\Anterminator\AntSim\PheremoneGrid.h

; 87   : 		return cached_data[SwapBuffer].Strength[(ix * GridSize) + iy];

	movsxd	rax, DWORD PTR [rbx+24]
; File C:\Program Files (x86)\Microsoft Visual Studio\2019\Community\VC\Tools\MSVC\14.22.27905\include\array

; 148  :         return _Elems[_Pos];

	lea	rax, QWORD PTR [rax+rax*2]
	add	rax, rax
; File D:\Github\Anterminator\Anterminator\AntSim\PheremoneGrid.cpp

; 62   : 			GetStrengthFast((GridSize-1),v) = 0;

	mov	rax, QWORD PTR [rbx+rax*8+56]
	mov	DWORD PTR [rax+rsi-4], ebp
; File D:\Github\Anterminator\Anterminator\AntSim\PheremoneGrid.h

; 87   : 		return cached_data[SwapBuffer].Strength[(ix * GridSize) + iy];

	movsxd	rax, DWORD PTR [rbx+24]
; File C:\Program Files (x86)\Microsoft Visual Studio\2019\Community\VC\Tools\MSVC\14.22.27905\include\array

; 148  :         return _Elems[_Pos];

	lea	rax, QWORD PTR [rax+rax*2]
	add	rax, rax
; File D:\Github\Anterminator\Anterminator\AntSim\PheremoneGrid.cpp

; 59   : 			GetStrengthFast(v,0) = 0;

	mov	rax, QWORD PTR [rbx+rax*8+56]
	mov	DWORD PTR [rax+rcx+2048], ebp
; File D:\Github\Anterminator\Anterminator\AntSim\PheremoneGrid.h

; 87   : 		return cached_data[SwapBuffer].Strength[(ix * GridSize) + iy];

	movsxd	rax, DWORD PTR [rbx+24]
; File C:\Program Files (x86)\Microsoft Visual Studio\2019\Community\VC\Tools\MSVC\14.22.27905\include\array

; 148  :         return _Elems[_Pos];

	lea	rax, QWORD PTR [rax+rax*2]
	add	rax, rax
; File D:\Github\Anterminator\Anterminator\AntSim\PheremoneGrid.cpp

; 60   : 			GetStrengthFast(v,(GridSize-1)) = 0;

	mov	rax, QWORD PTR [rbx+rax*8+56]
	mov	DWORD PTR [rax+rcx+4092], ebp
; File D:\Github\Anterminator\Anterminator\AntSim\PheremoneGrid.h

; 87   : 		return cached_data[SwapBuffer].Strength[(ix * GridSize) + iy];

	movsxd	rax, DWORD PTR [rbx+24]
; File C:\Program Files (x86)\Microsoft Visual Studio\2019\Community\VC\Tools\MSVC\14.22.27905\include\array

; 148  :         return _Elems[_Pos];

	lea	rax, QWORD PTR [rax+rax*2]
	add	rax, rax
; File D:\Github\Anterminator\Anterminator\AntSim\PheremoneGrid.cpp

; 61   : 			GetStrengthFast(0,v) = 0;

	mov	rax, QWORD PTR [rbx+rax*8+56]
	mov	DWORD PTR [rax+rsi-1046528], ebp
; File D:\Github\Anterminator\Anterminator\AntSim\PheremoneGrid.h

; 87   : 		return cached_data[SwapBuffer].Strength[(ix * GridSize) + iy];

	movsxd	rax, DWORD PTR [rbx+24]
; File C:\Program Files (x86)\Microsoft Visual Studio\2019\Community\VC\Tools\MSVC\14.22.27905\include\array

; 148  :         return _Elems[_Pos];

	lea	rax, QWORD PTR [rax+rax*2]
	add	rax, rax
; File D:\Github\Anterminator\Anterminator\AntSim\PheremoneGrid.cpp

; 62   : 			GetStrengthFast((GridSize-1),v) = 0;

	mov	rax, QWORD PTR [rbx+rax*8+56]
	mov	DWORD PTR [rsi+rax], ebp
; File D:\Github\Anterminator\Anterminator\AntSim\PheremoneGrid.h

; 87   : 		return cached_data[SwapBuffer].Strength[(ix * GridSize) + iy];

	movsxd	rax, DWORD PTR [rbx+24]
; File C:\Program Files (x86)\Microsoft Visual Studio\2019\Community\VC\Tools\MSVC\14.22.27905\include\array

; 148  :         return _Elems[_Pos];

	lea	rax, QWORD PTR [rax+rax*2]
	add	rax, rax
; File D:\Github\Anterminator\Anterminator\AntSim\PheremoneGrid.cpp

; 59   : 			GetStrengthFast(v,0) = 0;

	mov	rax, QWORD PTR [rbx+rax*8+56]
	mov	DWORD PTR [rax+rcx+4096], ebp
; File D:\Github\Anterminator\Anterminator\AntSim\PheremoneGrid.h

; 87   : 		return cached_data[SwapBuffer].Strength[(ix * GridSize) + iy];

	movsxd	rax, DWORD PTR [rbx+24]
; File C:\Program Files (x86)\Microsoft Visual Studio\2019\Community\VC\Tools\MSVC\14.22.27905\include\array

; 148  :         return _Elems[_Pos];

	lea	rax, QWORD PTR [rax+rax*2]
	add	rax, rax
; File D:\Github\Anterminator\Anterminator\AntSim\PheremoneGrid.cpp

; 60   : 			GetStrengthFast(v,(GridSize-1)) = 0;

	mov	rax, QWORD PTR [rbx+rax*8+56]
	mov	DWORD PTR [rax+rcx+6140], ebp
; File D:\Github\Anterminator\Anterminator\AntSim\PheremoneGrid.h

; 87   : 		return cached_data[SwapBuffer].Strength[(ix * GridSize) + iy];

	movsxd	rax, DWORD PTR [rbx+24]
; File C:\Program Files (x86)\Microsoft Visual Studio\2019\Community\VC\Tools\MSVC\14.22.27905\include\array

; 148  :         return _Elems[_Pos];

	lea	rax, QWORD PTR [rax+rax*2]
	add	rax, rax
; File D:\Github\Anterminator\Anterminator\AntSim\PheremoneGrid.cpp

; 61   : 			GetStrengthFast(0,v) = 0;

	mov	rax, QWORD PTR [rbx+rax*8+56]
	mov	DWORD PTR [rax+rsi-1046524], ebp
; File D:\Github\Anterminator\Anterminator\AntSim\PheremoneGrid.h

; 87   : 		return cached_data[SwapBuffer].Strength[(ix * GridSize) + iy];

	movsxd	rax, DWORD PTR [rbx+24]
; File C:\Program Files (x86)\Microsoft Visual Studio\2019\Community\VC\Tools\MSVC\14.22.27905\include\array

; 148  :         return _Elems[_Pos];

	lea	rax, QWORD PTR [rax+rax*2]
	add	rax, rax
; File D:\Github\Anterminator\Anterminator\AntSim\PheremoneGrid.cpp

; 62   : 			GetStrengthFast((GridSize-1),v) = 0;

	mov	rax, QWORD PTR [rbx+rax*8+56]
	mov	DWORD PTR [rax+rsi+4], ebp
; File D:\Github\Anterminator\Anterminator\AntSim\PheremoneGrid.h

; 87   : 		return cached_data[SwapBuffer].Strength[(ix * GridSize) + iy];

	movsxd	rax, DWORD PTR [rbx+24]
; File C:\Program Files (x86)\Microsoft Visual Studio\2019\Community\VC\Tools\MSVC\14.22.27905\include\array

; 148  :         return _Elems[_Pos];

	lea	rax, QWORD PTR [rax+rax*2]
	add	rax, rax
; File D:\Github\Anterminator\Anterminator\AntSim\PheremoneGrid.cpp

; 59   : 			GetStrengthFast(v,0) = 0;

	mov	rax, QWORD PTR [rbx+rax*8+56]
	mov	DWORD PTR [rcx+rax+6144], ebp
; File D:\Github\Anterminator\Anterminator\AntSim\PheremoneGrid.h

; 87   : 		return cached_data[SwapBuffer].Strength[(ix * GridSize) + iy];

	movsxd	rax, DWORD PTR [rbx+24]
; File C:\Program Files (x86)\Microsoft Visual Studio\2019\Community\VC\Tools\MSVC\14.22.27905\include\array

; 148  :         return _Elems[_Pos];

	lea	rax, QWORD PTR [rax+rax*2]
	add	rax, rax
; File D:\Github\Anterminator\Anterminator\AntSim\PheremoneGrid.cpp

; 60   : 			GetStrengthFast(v,(GridSize-1)) = 0;

	mov	rax, QWORD PTR [rbx+rax*8+56]
	mov	DWORD PTR [rax+rcx+8188], ebp
; File D:\Github\Anterminator\Anterminator\AntSim\PheremoneGrid.h

; 87   : 		return cached_data[SwapBuffer].Strength[(ix * GridSize) + iy];

	movsxd	rax, DWORD PTR [rbx+24]
; File C:\Program Files (x86)\Microsoft Visual Studio\2019\Community\VC\Tools\MSVC\14.22.27905\include\array

; 148  :         return _Elems[_Pos];

	lea	rax, QWORD PTR [rax+rax*2]
	add	rax, rax
; File D:\Github\Anterminator\Anterminator\AntSim\PheremoneGrid.cpp

; 61   : 			GetStrengthFast(0,v) = 0;

	mov	rax, QWORD PTR [rbx+rax*8+56]
	mov	DWORD PTR [rax+rsi-1046520], ebp
; File D:\Github\Anterminator\Anterminator\AntSim\PheremoneGrid.h

; 87   : 		return cached_data[SwapBuffer].Strength[(ix * GridSize) + iy];

	movsxd	rax, DWORD PTR [rbx+24]
; File C:\Program Files (x86)\Microsoft Visual Studio\2019\Community\VC\Tools\MSVC\14.22.27905\include\array

; 148  :         return _Elems[_Pos];

	lea	rax, QWORD PTR [rax+rax*2]
	add	rax, rax
; File D:\Github\Anterminator\Anterminator\AntSim\PheremoneGrid.cpp

; 62   : 			GetStrengthFast((GridSize-1),v) = 0;

	mov	rax, QWORD PTR [rbx+rax*8+56]
	mov	DWORD PTR [rax+rsi+8], ebp
; File D:\Github\Anterminator\Anterminator\AntSim\PheremoneGrid.h

; 87   : 		return cached_data[SwapBuffer].Strength[(ix * GridSize) + iy];

	movsxd	rax, DWORD PTR [rbx+24]
; File C:\Program Files (x86)\Microsoft Visual Studio\2019\Community\VC\Tools\MSVC\14.22.27905\include\array

; 148  :         return _Elems[_Pos];

	lea	rax, QWORD PTR [rax+rax*2]
	add	rax, rax
; File D:\Github\Anterminator\Anterminator\AntSim\PheremoneGrid.cpp

; 62   : 			GetStrengthFast((GridSize-1),v) = 0;

	lea	rcx, QWORD PTR [rcx+16384]
	mov	rax, QWORD PTR [rbx+rax*8+56]
	mov	DWORD PTR [rax+rcx-8192], ebp
; File D:\Github\Anterminator\Anterminator\AntSim\PheremoneGrid.h

; 87   : 		return cached_data[SwapBuffer].Strength[(ix * GridSize) + iy];

	movsxd	rax, DWORD PTR [rbx+24]
; File C:\Program Files (x86)\Microsoft Visual Studio\2019\Community\VC\Tools\MSVC\14.22.27905\include\array

; 148  :         return _Elems[_Pos];

	lea	rax, QWORD PTR [rax+rax*2]
	add	rax, rax
; File D:\Github\Anterminator\Anterminator\AntSim\PheremoneGrid.cpp

; 60   : 			GetStrengthFast(v,(GridSize-1)) = 0;

	mov	rax, QWORD PTR [rbx+rax*8+56]
	mov	DWORD PTR [rax+rcx-6148], ebp
; File D:\Github\Anterminator\Anterminator\AntSim\PheremoneGrid.h

; 87   : 		return cached_data[SwapBuffer].Strength[(ix * GridSize) + iy];

	movsxd	rax, DWORD PTR [rbx+24]
; File C:\Program Files (x86)\Microsoft Visual Studio\2019\Community\VC\Tools\MSVC\14.22.27905\include\array

; 148  :         return _Elems[_Pos];

	lea	rax, QWORD PTR [rax+rax*2]
	add	rax, rax
; File D:\Github\Anterminator\Anterminator\AntSim\PheremoneGrid.cpp

; 61   : 			GetStrengthFast(0,v) = 0;

	mov	rax, QWORD PTR [rbx+rax*8+56]
	mov	DWORD PTR [rax+rsi-1046516], ebp
; File D:\Github\Anterminator\Anterminator\AntSim\PheremoneGrid.h

; 87   : 		return cached_data[SwapBuffer].Strength[(ix * GridSize) + iy];

	movsxd	rax, DWORD PTR [rbx+24]
; File C:\Program Files (x86)\Microsoft Visual Studio\2019\Community\VC\Tools\MSVC\14.22.27905\include\array

; 148  :         return _Elems[_Pos];

	lea	rax, QWORD PTR [rax+rax*2]
	add	rax, rax
; File D:\Github\Anterminator\Anterminator\AntSim\PheremoneGrid.cpp

; 62   : 			GetStrengthFast((GridSize-1),v) = 0;

	mov	rax, QWORD PTR [rbx+rax*8+56]
	mov	DWORD PTR [rax+rsi+12], ebp
; File D:\Github\Anterminator\Anterminator\AntSim\PheremoneGrid.h

; 87   : 		return cached_data[SwapBuffer].Strength[(ix * GridSize) + iy];

	movsxd	rax, DWORD PTR [rbx+24]
; File C:\Program Files (x86)\Microsoft Visual Studio\2019\Community\VC\Tools\MSVC\14.22.27905\include\array

; 148  :         return _Elems[_Pos];

	lea	rax, QWORD PTR [rax+rax*2]
	add	rax, rax
; File D:\Github\Anterminator\Anterminator\AntSim\PheremoneGrid.cpp

; 59   : 			GetStrengthFast(v,0) = 0;

	mov	rax, QWORD PTR [rbx+rax*8+56]
	mov	DWORD PTR [rax+rcx-6144], ebp
; File D:\Github\Anterminator\Anterminator\AntSim\PheremoneGrid.h

; 87   : 		return cached_data[SwapBuffer].Strength[(ix * GridSize) + iy];

	movsxd	rax, DWORD PTR [rbx+24]
; File C:\Program Files (x86)\Microsoft Visual Studio\2019\Community\VC\Tools\MSVC\14.22.27905\include\array

; 148  :         return _Elems[_Pos];

	lea	rax, QWORD PTR [rax+rax*2]
	add	rax, rax
; File D:\Github\Anterminator\Anterminator\AntSim\PheremoneGrid.cpp

; 60   : 			GetStrengthFast(v,(GridSize-1)) = 0;

	mov	rax, QWORD PTR [rbx+rax*8+56]
	mov	DWORD PTR [rax+rcx-4100], ebp
; File D:\Github\Anterminator\Anterminator\AntSim\PheremoneGrid.h

; 87   : 		return cached_data[SwapBuffer].Strength[(ix * GridSize) + iy];

	movsxd	rax, DWORD PTR [rbx+24]
; File C:\Program Files (x86)\Microsoft Visual Studio\2019\Community\VC\Tools\MSVC\14.22.27905\include\array

; 148  :         return _Elems[_Pos];

	lea	rax, QWORD PTR [rax+rax*2]
	add	rax, rax
; File D:\Github\Anterminator\Anterminator\AntSim\PheremoneGrid.cpp

; 61   : 			GetStrengthFast(0,v) = 0;

	mov	rax, QWORD PTR [rbx+rax*8+56]
	mov	DWORD PTR [rax+rsi-1046512], ebp
; File D:\Github\Anterminator\Anterminator\AntSim\PheremoneGrid.h

; 87   : 		return cached_data[SwapBuffer].Strength[(ix * GridSize) + iy];

	movsxd	rax, DWORD PTR [rbx+24]
; File C:\Program Files (x86)\Microsoft Visual Studio\2019\Community\VC\Tools\MSVC\14.22.27905\include\array

; 148  :         return _Elems[_Pos];

	lea	rax, QWORD PTR [rax+rax*2]
	add	rax, rax
; File D:\Github\Anterminator\Anterminator\AntSim\PheremoneGrid.cpp

; 62   : 			GetStrengthFast((GridSize-1),v) = 0;

	mov	rax, QWORD PTR [rbx+rax*8+56]
	mov	DWORD PTR [rax+rsi+16], ebp
; File D:\Github\Anterminator\Anterminator\AntSim\PheremoneGrid.h

; 87   : 		return cached_data[SwapBuffer].Strength[(ix * GridSize) + iy];

	movsxd	rax, DWORD PTR [rbx+24]
; File C:\Program Files (x86)\Microsoft Visual Studio\2019\Community\VC\Tools\MSVC\14.22.27905\include\array

; 148  :         return _Elems[_Pos];

	lea	rax, QWORD PTR [rax+rax*2]
	add	rax, rax
; File D:\Github\Anterminator\Anterminator\AntSim\PheremoneGrid.cpp

; 59   : 			GetStrengthFast(v,0) = 0;

	mov	rax, QWORD PTR [rbx+rax*8+56]
	mov	DWORD PTR [rax+rcx-4096], ebp
; File D:\Github\Anterminator\Anterminator\AntSim\PheremoneGrid.h

; 87   : 		return cached_data[SwapBuffer].Strength[(ix * GridSize) + iy];

	movsxd	rax, DWORD PTR [rbx+24]
; File C:\Program Files (x86)\Microsoft Visual Studio\2019\Community\VC\Tools\MSVC\14.22.27905\include\array

; 148  :         return _Elems[_Pos];

	lea	rax, QWORD PTR [rax+rax*2]
	add	rax, rax
; File D:\Github\Anterminator\Anterminator\AntSim\PheremoneGrid.cpp

; 60   : 			GetStrengthFast(v,(GridSize-1)) = 0;

	mov	rax, QWORD PTR [rbx+rax*8+56]
	mov	DWORD PTR [rax+rcx-2052], ebp
; File D:\Github\Anterminator\Anterminator\AntSim\PheremoneGrid.h

; 87   : 		return cached_data[SwapBuffer].Strength[(ix * GridSize) + iy];

	movsxd	rax, DWORD PTR [rbx+24]
; File C:\Program Files (x86)\Microsoft Visual Studio\2019\Community\VC\Tools\MSVC\14.22.27905\include\array

; 148  :         return _Elems[_Pos];

	lea	rax, QWORD PTR [rax+rax*2]
	add	rax, rax
; File D:\Github\Anterminator\Anterminator\AntSim\PheremoneGrid.cpp

; 61   : 			GetStrengthFast(0,v) = 0;

	mov	rax, QWORD PTR [rbx+rax*8+56]
	mov	DWORD PTR [rax+rsi-1046508], ebp
; File D:\Github\Anterminator\Anterminator\AntSim\PheremoneGrid.h

; 87   : 		return cached_data[SwapBuffer].Strength[(ix * GridSize) + iy];

	movsxd	rax, DWORD PTR [rbx+24]
; File C:\Program Files (x86)\Microsoft Visual Studio\2019\Community\VC\Tools\MSVC\14.22.27905\include\array

; 148  :         return _Elems[_Pos];

	lea	rax, QWORD PTR [rax+rax*2]
	add	rax, rax
; File D:\Github\Anterminator\Anterminator\AntSim\PheremoneGrid.cpp

; 62   : 			GetStrengthFast((GridSize-1),v) = 0;

	mov	rax, QWORD PTR [rbx+rax*8+56]
	mov	DWORD PTR [rax+rsi+20], ebp
; File D:\Github\Anterminator\Anterminator\AntSim\PheremoneGrid.h

; 87   : 		return cached_data[SwapBuffer].Strength[(ix * GridSize) + iy];

	movsxd	rax, DWORD PTR [rbx+24]
; File C:\Program Files (x86)\Microsoft Visual Studio\2019\Community\VC\Tools\MSVC\14.22.27905\include\array

; 148  :         return _Elems[_Pos];

	lea	rax, QWORD PTR [rax+rax*2]
	add	rax, rax
; File D:\Github\Anterminator\Anterminator\AntSim\PheremoneGrid.cpp

; 59   : 			GetStrengthFast(v,0) = 0;

	mov	rax, QWORD PTR [rbx+rax*8+56]
	mov	DWORD PTR [rax+rcx-2048], ebp
; File D:\Github\Anterminator\Anterminator\AntSim\PheremoneGrid.h

; 87   : 		return cached_data[SwapBuffer].Strength[(ix * GridSize) + iy];

	movsxd	rax, DWORD PTR [rbx+24]
; File C:\Program Files (x86)\Microsoft Visual Studio\2019\Community\VC\Tools\MSVC\14.22.27905\include\array

; 148  :         return _Elems[_Pos];

	lea	rax, QWORD PTR [rax+rax*2]
	add	rax, rax
; File D:\Github\Anterminator\Anterminator\AntSim\PheremoneGrid.cpp

; 60   : 			GetStrengthFast(v,(GridSize-1)) = 0;

	mov	rax, QWORD PTR [rbx+rax*8+56]
	mov	DWORD PTR [rax+rcx-4], ebp
; File D:\Github\Anterminator\Anterminator\AntSim\PheremoneGrid.h

; 87   : 		return cached_data[SwapBuffer].Strength[(ix * GridSize) + iy];

	movsxd	rax, DWORD PTR [rbx+24]
; File C:\Program Files (x86)\Microsoft Visual Studio\2019\Community\VC\Tools\MSVC\14.22.27905\include\array

; 148  :         return _Elems[_Pos];

	lea	rax, QWORD PTR [rax+rax*2]
	add	rax, rax
; File D:\Github\Anterminator\Anterminator\AntSim\PheremoneGrid.cpp

; 61   : 			GetStrengthFast(0,v) = 0;

	mov	rax, QWORD PTR [rbx+rax*8+56]
	mov	DWORD PTR [rax+rsi-1046504], ebp
; File D:\Github\Anterminator\Anterminator\AntSim\PheremoneGrid.h

; 87   : 		return cached_data[SwapBuffer].Strength[(ix * GridSize) + iy];

	movsxd	rax, DWORD PTR [rbx+24]
; File C:\Program Files (x86)\Microsoft Visual Studio\2019\Community\VC\Tools\MSVC\14.22.27905\include\array

; 148  :         return _Elems[_Pos];

	lea	rax, QWORD PTR [rax+rax*2]
	add	rax, rax
; File D:\Github\Anterminator\Anterminator\AntSim\PheremoneGrid.cpp

; 62   : 			GetStrengthFast((GridSize-1),v) = 0;

	mov	rax, QWORD PTR [rbx+rax*8+56]
	mov	DWORD PTR [rax+rsi+24], ebp
	add	rsi, 32					; 00000020H

; 46   : /*#pragma omp parallel for
; 47   : 		for (int x = 1; x < GridSize-1; ++x)
; 48   : 		{
; 49   : 			for (int y = 1; y < GridSize-1; ++y)
; 50   : 			{
; 51   : 				raw_data[y + (x * GridSize)].Direction = Backbuffer[y + (x * GridSize)];
; 52   : 				raw_data[y + (x * GridSize)].Strength = Backbufferstrength[y + (x * GridSize)];
; 53   : 			}
; 54   : 		}
; 55   : 		*/
; 56   : 
; 57   : 		for (int v = 0; v < GridSize; ++v)

	cmp	rsi, 1048580				; 00100004H
	jl	$LL13@Update

; 63   : 		}
; 64   : 		DiffuseTime = 0;

	mov	rsi, QWORD PTR [rsp+80]
	mov	DWORD PTR [rbx+16], ebp
	mov	rbp, QWORD PTR [rsp+72]
$LN14@Update:

; 65   : 	}
; 66   : }

	add	rsp, 48					; 00000030H
	pop	rbx
	ret	0
?Update@PheremoneGrid@@QEAAXM@Z ENDP			; PheremoneGrid::Update
_TEXT	ENDS
; Function compile flags: /Ogtpy
; File D:\Github\Anterminator\Anterminator\AntSim\PheremoneGrid.h
; File C:\Program Files (x86)\Microsoft Visual Studio\2019\Community\VC\Tools\MSVC\14.22.27905\include\array
; File C:\Program Files (x86)\Microsoft Visual Studio\2019\Community\VC\Tools\MSVC\14.22.27905\include\vector
; File D:\Github\Anterminator\Anterminator\AntSim\PheremoneGrid.h
;	COMDAT ?GetDirectionFast@PheremoneGrid@@QEAAAEAU?$vec@$01M$0A@@glm@@HH@Z
_TEXT	SEGMENT
this$ = 8
ix$ = 16
iy$ = 24
?GetDirectionFast@PheremoneGrid@@QEAAAEAU?$vec@$01M$0A@@glm@@HH@Z PROC ; PheremoneGrid::GetDirectionFast, COMDAT

; 83   : 		return cached_data[SwapBuffer].Direction[(ix * GridSize) + iy];

	movsxd	rax, DWORD PTR [rcx+24]
	shl	edx, 9
	add	edx, r8d
	movsxd	rdx, edx
; File C:\Program Files (x86)\Microsoft Visual Studio\2019\Community\VC\Tools\MSVC\14.22.27905\include\array

; 148  :         return _Elems[_Pos];

	lea	rax, QWORD PTR [rax+rax*2]
	add	rax, rax
; File C:\Program Files (x86)\Microsoft Visual Studio\2019\Community\VC\Tools\MSVC\14.22.27905\include\vector

; 1468 :         return _My_data._Myfirst[_Pos];

	mov	rax, QWORD PTR [rcx+rax*8+32]
	lea	rax, QWORD PTR [rax+rdx*8]
; File D:\Github\Anterminator\Anterminator\AntSim\PheremoneGrid.h

; 84   : 	}

	ret	0
?GetDirectionFast@PheremoneGrid@@QEAAAEAU?$vec@$01M$0A@@glm@@HH@Z ENDP ; PheremoneGrid::GetDirectionFast
_TEXT	ENDS
; Function compile flags: /Ogtpy
; File D:\Github\Anterminator\Anterminator\AntSim\PheremoneGrid.h
; File C:\Program Files (x86)\Microsoft Visual Studio\2019\Community\VC\Tools\MSVC\14.22.27905\include\array
; File C:\Program Files (x86)\Microsoft Visual Studio\2019\Community\VC\Tools\MSVC\14.22.27905\include\vector
; File D:\Github\Anterminator\Anterminator\AntSim\PheremoneGrid.h
;	COMDAT ?GetStrengthFast@PheremoneGrid@@QEAAAEAMHH@Z
_TEXT	SEGMENT
this$ = 8
ix$ = 16
iy$ = 24
?GetStrengthFast@PheremoneGrid@@QEAAAEAMHH@Z PROC	; PheremoneGrid::GetStrengthFast, COMDAT

; 87   : 		return cached_data[SwapBuffer].Strength[(ix * GridSize) + iy];

	movsxd	rax, DWORD PTR [rcx+24]
	shl	edx, 9
	add	edx, r8d
	movsxd	rdx, edx
; File C:\Program Files (x86)\Microsoft Visual Studio\2019\Community\VC\Tools\MSVC\14.22.27905\include\array

; 148  :         return _Elems[_Pos];

	lea	rax, QWORD PTR [rax+rax*2]
	add	rax, rax
; File C:\Program Files (x86)\Microsoft Visual Studio\2019\Community\VC\Tools\MSVC\14.22.27905\include\vector

; 1468 :         return _My_data._Myfirst[_Pos];

	mov	rax, QWORD PTR [rcx+rax*8+56]
	lea	rax, QWORD PTR [rax+rdx*4]
; File D:\Github\Anterminator\Anterminator\AntSim\PheremoneGrid.h

; 88   : 	}

	ret	0
?GetStrengthFast@PheremoneGrid@@QEAAAEAMHH@Z ENDP	; PheremoneGrid::GetStrengthFast
_TEXT	ENDS
END
